
Sortirovka.elf:     file format elf32-avr

Sections:
Idx Name          Size      VMA       LMA       File off  Algn
  0 .data         00000050  00800100  00001ff0  000020a4  2**0
                  CONTENTS, ALLOC, LOAD, DATA
  1 .text         00001ff0  00000000  00000000  000000b4  2**1
                  CONTENTS, ALLOC, LOAD, READONLY, CODE
  2 .bss          00000157  00800150  00800150  000020f4  2**0
                  ALLOC
  3 .eeprom       00000008  00810000  00810000  000020f4  2**0
                  CONTENTS, ALLOC, LOAD, DATA
  4 .comment      0000005c  00000000  00000000  000020fc  2**0
                  CONTENTS, READONLY
  5 .debug_aranges 00000358  00000000  00000000  00002158  2**0
                  CONTENTS, READONLY, DEBUGGING
  6 .debug_info   000039a3  00000000  00000000  000024b0  2**0
                  CONTENTS, READONLY, DEBUGGING
  7 .debug_abbrev 000012e8  00000000  00000000  00005e53  2**0
                  CONTENTS, READONLY, DEBUGGING
  8 .debug_line   000016eb  00000000  00000000  0000713b  2**0
                  CONTENTS, READONLY, DEBUGGING
  9 .debug_frame  000008a0  00000000  00000000  00008828  2**2
                  CONTENTS, READONLY, DEBUGGING
 10 .debug_str    00000b28  00000000  00000000  000090c8  2**0
                  CONTENTS, READONLY, DEBUGGING
 11 .debug_loc    00001f91  00000000  00000000  00009bf0  2**0
                  CONTENTS, READONLY, DEBUGGING
 12 .debug_ranges 00000298  00000000  00000000  0000bb81  2**0
                  CONTENTS, READONLY, DEBUGGING

Disassembly of section .text:

00000000 <__vectors>:
       0:	0c 94 44 01 	jmp	0x288	; 0x288 <__ctors_end>
       4:	0c 94 14 05 	jmp	0xa28	; 0xa28 <__vector_1>
       8:	0c 94 61 01 	jmp	0x2c2	; 0x2c2 <__bad_interrupt>
       c:	0c 94 61 01 	jmp	0x2c2	; 0x2c2 <__bad_interrupt>
      10:	0c 94 61 01 	jmp	0x2c2	; 0x2c2 <__bad_interrupt>
      14:	0c 94 61 01 	jmp	0x2c2	; 0x2c2 <__bad_interrupt>
      18:	0c 94 61 01 	jmp	0x2c2	; 0x2c2 <__bad_interrupt>
      1c:	0c 94 61 01 	jmp	0x2c2	; 0x2c2 <__bad_interrupt>
      20:	0c 94 61 01 	jmp	0x2c2	; 0x2c2 <__bad_interrupt>
      24:	0c 94 61 01 	jmp	0x2c2	; 0x2c2 <__bad_interrupt>
      28:	0c 94 61 01 	jmp	0x2c2	; 0x2c2 <__bad_interrupt>
      2c:	0c 94 2b 0b 	jmp	0x1656	; 0x1656 <__vector_11>
      30:	0c 94 61 01 	jmp	0x2c2	; 0x2c2 <__bad_interrupt>
      34:	0c 94 61 01 	jmp	0x2c2	; 0x2c2 <__bad_interrupt>
      38:	0c 94 61 01 	jmp	0x2c2	; 0x2c2 <__bad_interrupt>
      3c:	0c 94 61 01 	jmp	0x2c2	; 0x2c2 <__bad_interrupt>
      40:	0c 94 61 01 	jmp	0x2c2	; 0x2c2 <__bad_interrupt>
      44:	0c 94 61 01 	jmp	0x2c2	; 0x2c2 <__bad_interrupt>
      48:	0c 94 7c 01 	jmp	0x2f8	; 0x2f8 <__vector_18>
      4c:	0c 94 db 01 	jmp	0x3b6	; 0x3b6 <__vector_19>
      50:	0c 94 bd 01 	jmp	0x37a	; 0x37a <__vector_20>
      54:	0c 94 61 01 	jmp	0x2c2	; 0x2c2 <__bad_interrupt>
      58:	0c 94 61 01 	jmp	0x2c2	; 0x2c2 <__bad_interrupt>
      5c:	0c 94 61 01 	jmp	0x2c2	; 0x2c2 <__bad_interrupt>
      60:	0c 94 6c 08 	jmp	0x10d8	; 0x10d8 <__vector_24>
      64:	0c 94 61 01 	jmp	0x2c2	; 0x2c2 <__bad_interrupt>
      68:	8a 08       	sbc	r8, r10
      6a:	30 0a       	sbc	r3, r16
      6c:	30 0a       	sbc	r3, r16
      6e:	30 0a       	sbc	r3, r16
      70:	30 0a       	sbc	r3, r16
      72:	30 0a       	sbc	r3, r16
      74:	30 0a       	sbc	r3, r16
      76:	30 0a       	sbc	r3, r16
      78:	98 08       	sbc	r9, r8
      7a:	30 0a       	sbc	r3, r16
      7c:	30 0a       	sbc	r3, r16
      7e:	30 0a       	sbc	r3, r16
      80:	30 0a       	sbc	r3, r16
      82:	30 0a       	sbc	r3, r16
      84:	30 0a       	sbc	r3, r16
      86:	30 0a       	sbc	r3, r16
      88:	af 08       	sbc	r10, r15
      8a:	30 0a       	sbc	r3, r16
      8c:	30 0a       	sbc	r3, r16
      8e:	30 0a       	sbc	r3, r16
      90:	30 0a       	sbc	r3, r16
      92:	30 0a       	sbc	r3, r16
      94:	30 0a       	sbc	r3, r16
      96:	30 0a       	sbc	r3, r16
      98:	c7 08       	sbc	r12, r7
      9a:	30 0a       	sbc	r3, r16
      9c:	30 0a       	sbc	r3, r16
      9e:	30 0a       	sbc	r3, r16
      a0:	30 0a       	sbc	r3, r16
      a2:	30 0a       	sbc	r3, r16
      a4:	30 0a       	sbc	r3, r16
      a6:	30 0a       	sbc	r3, r16
      a8:	f3 08       	sbc	r15, r3
      aa:	30 0a       	sbc	r3, r16
      ac:	30 0a       	sbc	r3, r16
      ae:	30 0a       	sbc	r3, r16
      b0:	30 0a       	sbc	r3, r16
      b2:	30 0a       	sbc	r3, r16
      b4:	30 0a       	sbc	r3, r16
      b6:	30 0a       	sbc	r3, r16
      b8:	01 09       	sbc	r16, r1
      ba:	30 0a       	sbc	r3, r16
      bc:	30 0a       	sbc	r3, r16
      be:	30 0a       	sbc	r3, r16
      c0:	30 0a       	sbc	r3, r16
      c2:	30 0a       	sbc	r3, r16
      c4:	30 0a       	sbc	r3, r16
      c6:	30 0a       	sbc	r3, r16
      c8:	42 09       	sbc	r20, r2
      ca:	30 0a       	sbc	r3, r16
      cc:	30 0a       	sbc	r3, r16
      ce:	30 0a       	sbc	r3, r16
      d0:	30 0a       	sbc	r3, r16
      d2:	30 0a       	sbc	r3, r16
      d4:	30 0a       	sbc	r3, r16
      d6:	30 0a       	sbc	r3, r16
      d8:	50 09       	sbc	r21, r0
      da:	30 0a       	sbc	r3, r16
      dc:	30 0a       	sbc	r3, r16
      de:	30 0a       	sbc	r3, r16
      e0:	30 0a       	sbc	r3, r16
      e2:	30 0a       	sbc	r3, r16
      e4:	30 0a       	sbc	r3, r16
      e6:	30 0a       	sbc	r3, r16
      e8:	5d 09       	sbc	r21, r13
      ea:	30 0a       	sbc	r3, r16
      ec:	30 0a       	sbc	r3, r16
      ee:	30 0a       	sbc	r3, r16
      f0:	30 0a       	sbc	r3, r16
      f2:	30 0a       	sbc	r3, r16
      f4:	30 0a       	sbc	r3, r16
      f6:	30 0a       	sbc	r3, r16
      f8:	70 09       	sbc	r23, r0
      fa:	30 0a       	sbc	r3, r16
      fc:	30 0a       	sbc	r3, r16
      fe:	30 0a       	sbc	r3, r16
     100:	30 0a       	sbc	r3, r16
     102:	30 0a       	sbc	r3, r16
     104:	30 0a       	sbc	r3, r16
     106:	30 0a       	sbc	r3, r16
     108:	7e 09       	sbc	r23, r14
     10a:	30 0a       	sbc	r3, r16
     10c:	30 0a       	sbc	r3, r16
     10e:	30 0a       	sbc	r3, r16
     110:	30 0a       	sbc	r3, r16
     112:	30 0a       	sbc	r3, r16
     114:	30 0a       	sbc	r3, r16
     116:	30 0a       	sbc	r3, r16
     118:	9b 09       	sbc	r25, r11
     11a:	30 0a       	sbc	r3, r16
     11c:	30 0a       	sbc	r3, r16
     11e:	30 0a       	sbc	r3, r16
     120:	30 0a       	sbc	r3, r16
     122:	30 0a       	sbc	r3, r16
     124:	30 0a       	sbc	r3, r16
     126:	30 0a       	sbc	r3, r16
     128:	b5 09       	sbc	r27, r5
     12a:	30 0a       	sbc	r3, r16
     12c:	30 0a       	sbc	r3, r16
     12e:	30 0a       	sbc	r3, r16
     130:	30 0a       	sbc	r3, r16
     132:	30 0a       	sbc	r3, r16
     134:	30 0a       	sbc	r3, r16
     136:	30 0a       	sbc	r3, r16
     138:	ac 09       	sbc	r26, r12
     13a:	30 0a       	sbc	r3, r16
     13c:	30 0a       	sbc	r3, r16
     13e:	30 0a       	sbc	r3, r16
     140:	30 0a       	sbc	r3, r16
     142:	30 0a       	sbc	r3, r16
     144:	30 0a       	sbc	r3, r16
     146:	30 0a       	sbc	r3, r16
     148:	b5 09       	sbc	r27, r5
     14a:	30 0a       	sbc	r3, r16
     14c:	30 0a       	sbc	r3, r16
     14e:	30 0a       	sbc	r3, r16
     150:	30 0a       	sbc	r3, r16
     152:	30 0a       	sbc	r3, r16
     154:	30 0a       	sbc	r3, r16
     156:	30 0a       	sbc	r3, r16
     158:	ac 09       	sbc	r26, r12
     15a:	30 0a       	sbc	r3, r16
     15c:	30 0a       	sbc	r3, r16
     15e:	30 0a       	sbc	r3, r16
     160:	30 0a       	sbc	r3, r16
     162:	30 0a       	sbc	r3, r16
     164:	30 0a       	sbc	r3, r16
     166:	30 0a       	sbc	r3, r16
     168:	c0 09       	sbc	r28, r0
     16a:	30 0a       	sbc	r3, r16
     16c:	30 0a       	sbc	r3, r16
     16e:	30 0a       	sbc	r3, r16
     170:	30 0a       	sbc	r3, r16
     172:	30 0a       	sbc	r3, r16
     174:	30 0a       	sbc	r3, r16
     176:	30 0a       	sbc	r3, r16
     178:	d6 09       	sbc	r29, r6
     17a:	30 0a       	sbc	r3, r16
     17c:	30 0a       	sbc	r3, r16
     17e:	30 0a       	sbc	r3, r16
     180:	30 0a       	sbc	r3, r16
     182:	30 0a       	sbc	r3, r16
     184:	30 0a       	sbc	r3, r16
     186:	30 0a       	sbc	r3, r16
     188:	c0 09       	sbc	r28, r0
     18a:	30 0a       	sbc	r3, r16
     18c:	30 0a       	sbc	r3, r16
     18e:	30 0a       	sbc	r3, r16
     190:	30 0a       	sbc	r3, r16
     192:	30 0a       	sbc	r3, r16
     194:	30 0a       	sbc	r3, r16
     196:	30 0a       	sbc	r3, r16
     198:	d6 09       	sbc	r29, r6
     19a:	30 0a       	sbc	r3, r16
     19c:	30 0a       	sbc	r3, r16
     19e:	30 0a       	sbc	r3, r16
     1a0:	30 0a       	sbc	r3, r16
     1a2:	30 0a       	sbc	r3, r16
     1a4:	30 0a       	sbc	r3, r16
     1a6:	30 0a       	sbc	r3, r16
     1a8:	ef 09       	sbc	r30, r15
     1aa:	30 0a       	sbc	r3, r16
     1ac:	30 0a       	sbc	r3, r16
     1ae:	30 0a       	sbc	r3, r16
     1b0:	30 0a       	sbc	r3, r16
     1b2:	30 0a       	sbc	r3, r16
     1b4:	30 0a       	sbc	r3, r16
     1b6:	30 0a       	sbc	r3, r16
     1b8:	fc 09       	sbc	r31, r12
     1ba:	30 0a       	sbc	r3, r16
     1bc:	30 0a       	sbc	r3, r16
     1be:	30 0a       	sbc	r3, r16
     1c0:	30 0a       	sbc	r3, r16
     1c2:	30 0a       	sbc	r3, r16
     1c4:	30 0a       	sbc	r3, r16
     1c6:	30 0a       	sbc	r3, r16
     1c8:	f3 09       	sbc	r31, r3
     1ca:	30 0a       	sbc	r3, r16
     1cc:	30 0a       	sbc	r3, r16
     1ce:	30 0a       	sbc	r3, r16
     1d0:	30 0a       	sbc	r3, r16
     1d2:	30 0a       	sbc	r3, r16
     1d4:	30 0a       	sbc	r3, r16
     1d6:	30 0a       	sbc	r3, r16
     1d8:	06 0a       	sbc	r0, r22
     1da:	30 0a       	sbc	r3, r16
     1dc:	30 0a       	sbc	r3, r16
     1de:	30 0a       	sbc	r3, r16
     1e0:	30 0a       	sbc	r3, r16
     1e2:	30 0a       	sbc	r3, r16
     1e4:	30 0a       	sbc	r3, r16
     1e6:	30 0a       	sbc	r3, r16
     1e8:	1d 0a       	sbc	r1, r29
     1ea:	30 0a       	sbc	r3, r16
     1ec:	30 0a       	sbc	r3, r16
     1ee:	30 0a       	sbc	r3, r16
     1f0:	30 0a       	sbc	r3, r16
     1f2:	30 0a       	sbc	r3, r16
     1f4:	30 0a       	sbc	r3, r16
     1f6:	30 0a       	sbc	r3, r16
     1f8:	1d 0a       	sbc	r1, r29

000001fa <__trampolines_end>:
     1fa:	4d 45       	sbci	r20, 0x5D	; 93
     1fc:	4e 55       	subi	r20, 0x5E	; 94
     1fe:	3a 00       	.word	0x003a	; ????

00000200 <m_s3i2>:
     200:	68 02 0e 02 48 02 68 02 04 54 69 6d 65 00           h...H.h..Time.

0000020e <m_s3i1>:
     20e:	00 02 68 02 48 02 68 02 03 44 61 74 65 00           ..h.H.h..Date.

0000021c <m_s2i2>:
     21c:	68 02 2a 02 5a 02 68 02 06 52 65 61 64 00           h.*.Z.h..Read.

0000022a <m_s2i1>:
     22a:	1c 02 68 02 5a 02 68 02 05 57 72 69 74 65 00        ..h.Z.h..Write.

00000239 <m_s1i3>:
     239:	68 02 48 02 68 02 68 02 02 52 65 73 65 74 00        h.H.h.h..Reset.

00000248 <m_s1i2>:
     248:	39 02 5a 02 68 02 0e 02 00 53 65 74 74 69 6e 67     9.Z.h....Setting
     258:	73 00                                               s.

0000025a <m_s1i1>:
     25a:	48 02 68 02 68 02 2a 02 00 54 65 73 74 00           H.h.h.*..Test.

00000268 <Null_Menu>:
	...

00000272 <__c.1965>:
     272:	6e 6f 20 61 6e 73 77 65 72 00 00                    no answer..

0000027d <__c.1961>:
     27d:	43 52 43 20 65 72 72 6f 72 00 00                    CRC error..

00000288 <__ctors_end>:
     288:	11 24       	eor	r1, r1
     28a:	1f be       	out	0x3f, r1	; 63
     28c:	cf ef       	ldi	r28, 0xFF	; 255
     28e:	d8 e0       	ldi	r29, 0x08	; 8
     290:	de bf       	out	0x3e, r29	; 62
     292:	cd bf       	out	0x3d, r28	; 61

00000294 <__do_copy_data>:
     294:	11 e0       	ldi	r17, 0x01	; 1
     296:	a0 e0       	ldi	r26, 0x00	; 0
     298:	b1 e0       	ldi	r27, 0x01	; 1
     29a:	e0 ef       	ldi	r30, 0xF0	; 240
     29c:	ff e1       	ldi	r31, 0x1F	; 31
     29e:	02 c0       	rjmp	.+4      	; 0x2a4 <__do_copy_data+0x10>
     2a0:	05 90       	lpm	r0, Z+
     2a2:	0d 92       	st	X+, r0
     2a4:	a0 35       	cpi	r26, 0x50	; 80
     2a6:	b1 07       	cpc	r27, r17
     2a8:	d9 f7       	brne	.-10     	; 0x2a0 <__do_copy_data+0xc>

000002aa <__do_clear_bss>:
     2aa:	22 e0       	ldi	r18, 0x02	; 2
     2ac:	a0 e5       	ldi	r26, 0x50	; 80
     2ae:	b1 e0       	ldi	r27, 0x01	; 1
     2b0:	01 c0       	rjmp	.+2      	; 0x2b4 <.do_clear_bss_start>

000002b2 <.do_clear_bss_loop>:
     2b2:	1d 92       	st	X+, r1

000002b4 <.do_clear_bss_start>:
     2b4:	a7 3a       	cpi	r26, 0xA7	; 167
     2b6:	b2 07       	cpc	r27, r18
     2b8:	e1 f7       	brne	.-8      	; 0x2b2 <.do_clear_bss_loop>
     2ba:	0e 94 74 07 	call	0xee8	; 0xee8 <main>
     2be:	0c 94 f6 0f 	jmp	0x1fec	; 0x1fec <_exit>

000002c2 <__bad_interrupt>:
     2c2:	0c 94 00 00 	jmp	0	; 0x0 <__vectors>

000002c6 <uart_init>:

//#pragma region hardware_func

void uart_init() {

	tx_ptr = rx_ptr = 0;
     2c6:	10 92 15 02 	sts	0x0215, r1
     2ca:	10 92 14 02 	sts	0x0214, r1
	tx_datalen = rx_datalen = 0;
     2ce:	10 92 21 02 	sts	0x0221, r1
     2d2:	10 92 20 02 	sts	0x0220, r1

	UBRR0H = UBRRH_VALUE;
     2d6:	10 92 c5 00 	sts	0x00C5, r1
	UBRR0L = UBRRL_VALUE;
     2da:	83 e3       	ldi	r24, 0x33	; 51
     2dc:	80 93 c4 00 	sts	0x00C4, r24

	#if USE_2X
	UCSR0A |= _BV(U2X0);
	#else
	UCSR0A &= ~(_BV(U2X0));
     2e0:	e0 ec       	ldi	r30, 0xC0	; 192
     2e2:	f0 e0       	ldi	r31, 0x00	; 0
     2e4:	80 81       	ld	r24, Z
     2e6:	8d 7f       	andi	r24, 0xFD	; 253
     2e8:	80 83       	st	Z, r24
	#endif

	UCSR0C = _BV(UCSZ01) | _BV(UCSZ00); /* 8-bit data */
     2ea:	86 e0       	ldi	r24, 0x06	; 6
     2ec:	80 93 c2 00 	sts	0x00C2, r24

	//	UCSR0B = _BV(RXEN0) | _BV(TXEN0) | (1<<RXCIE0)| (1<<TXCIE0) | (1<<UDRIE0);   /* Разрешаем RX and TX, RXIE - байт принят, TXIE - байт отправлен, URDIE -буффер отправки пуст */
	UCSR0B = _BV(RXEN0) | _BV(TXEN0) | (1<<RXCIE0)| (0<<TXCIE0) | (0<<UDRIE0);		/* Разрешаем RX and TX, RXIE - байт принят, TXIE - байт отправлен, URDIE -буффер отправки пуст */
     2f0:	88 e9       	ldi	r24, 0x98	; 152
     2f2:	80 93 c1 00 	sts	0x00C1, r24
     2f6:	08 95       	ret

000002f8 <__vector_18>:



//Обработчик прерывания по окончанию приёма байта
ISR( USART_RX_vect )
{
     2f8:	1f 92       	push	r1
     2fa:	0f 92       	push	r0
     2fc:	0f b6       	in	r0, 0x3f	; 63
     2fe:	0f 92       	push	r0
     300:	11 24       	eor	r1, r1
     302:	2f 93       	push	r18
     304:	3f 93       	push	r19
     306:	4f 93       	push	r20
     308:	5f 93       	push	r21
     30a:	6f 93       	push	r22
     30c:	7f 93       	push	r23
     30e:	8f 93       	push	r24
     310:	9f 93       	push	r25
     312:	af 93       	push	r26
     314:	bf 93       	push	r27
     316:	ef 93       	push	r30
     318:	ff 93       	push	r31
	unsigned char rxbyte = UDR0;
     31a:	90 91 c6 00 	lds	r25, 0x00C6
//	if (PIND & _BV(PORTD6)) PORTD &= ~(1<<PORTD6); else PORTD |= (1<<PORTD6);
	
	if( rx_ptr < RXBUFF_LEN ) {
     31e:	80 91 15 02 	lds	r24, 0x0215
     322:	8e 34       	cpi	r24, 0x4E	; 78
     324:	78 f4       	brcc	.+30     	; 0x344 <__vector_18+0x4c>
		rx_buff[rx_ptr++] = rxbyte;
     326:	e0 91 15 02 	lds	r30, 0x0215
     32a:	81 e0       	ldi	r24, 0x01	; 1
     32c:	8e 0f       	add	r24, r30
     32e:	80 93 15 02 	sts	0x0215, r24
     332:	f0 e0       	ldi	r31, 0x00	; 0
     334:	ea 53       	subi	r30, 0x3A	; 58
     336:	fe 4f       	sbci	r31, 0xFE	; 254
     338:	90 83       	st	Z, r25
		rx_datalen++;
     33a:	80 91 21 02 	lds	r24, 0x0221
     33e:	8f 5f       	subi	r24, 0xFF	; 255
     340:	80 93 21 02 	sts	0x0221, r24
	}
	if ( ((o22_header_t *)rx_buff)->packet_size == rx_datalen) {
     344:	80 91 21 02 	lds	r24, 0x0221
     348:	90 91 c7 01 	lds	r25, 0x01C7
     34c:	98 13       	cpse	r25, r24
     34e:	04 c0       	rjmp	.+8      	; 0x358 <__vector_18+0x60>
		SetTask(new_packet);
     350:	8e ef       	ldi	r24, 0xFE	; 254
     352:	96 e0       	ldi	r25, 0x06	; 6
     354:	0e 94 71 0a 	call	0x14e2	; 0x14e2 <SetTask>
	}
}
     358:	ff 91       	pop	r31
     35a:	ef 91       	pop	r30
     35c:	bf 91       	pop	r27
     35e:	af 91       	pop	r26
     360:	9f 91       	pop	r25
     362:	8f 91       	pop	r24
     364:	7f 91       	pop	r23
     366:	6f 91       	pop	r22
     368:	5f 91       	pop	r21
     36a:	4f 91       	pop	r20
     36c:	3f 91       	pop	r19
     36e:	2f 91       	pop	r18
     370:	0f 90       	pop	r0
     372:	0f be       	out	0x3f, r0	; 63
     374:	0f 90       	pop	r0
     376:	1f 90       	pop	r1
     378:	18 95       	reti

0000037a <__vector_20>:


// прерывание по опустошению сдвигового регистра передатчика
ISR( USART_TX_vect) {
     37a:	1f 92       	push	r1
     37c:	0f 92       	push	r0
     37e:	0f b6       	in	r0, 0x3f	; 63
     380:	0f 92       	push	r0
     382:	11 24       	eor	r1, r1
     384:	8f 93       	push	r24
     386:	ef 93       	push	r30
     388:	ff 93       	push	r31

//	if (PIND & _BV(PORTD6)) PORTD &= ~(1<<PORTD6); else PORTD |= (1<<PORTD6);

	if (UCSR0A & _BV(UDRE0)) {						// есди буфер передатчика пуст, то передавать больше нечего
     38a:	80 91 c0 00 	lds	r24, 0x00C0
     38e:	85 ff       	sbrs	r24, 5
     390:	0a c0       	rjmp	.+20     	; 0x3a6 <__vector_20+0x2c>
		rx_datalen = rx_ptr = 0;					// и устанавливаем на начало буфера приема (теперь должен прийти ответный пакет)
     392:	10 92 15 02 	sts	0x0215, r1
     396:	10 92 21 02 	sts	0x0221, r1
		PORTD &= ~_BV(pin_RS485_RW);				// переключаем драйвер RS485 на прием
     39a:	5c 98       	cbi	0x0b, 4	; 11
		UCSR0B &= ~(_BV(UDRIE0) | _BV(TXCIE0) );	// запрещаем любые прерывания от передатчика
     39c:	e1 ec       	ldi	r30, 0xC1	; 193
     39e:	f0 e0       	ldi	r31, 0x00	; 0
     3a0:	80 81       	ld	r24, Z
     3a2:	8f 79       	andi	r24, 0x9F	; 159
     3a4:	80 83       	st	Z, r24
	}
}
     3a6:	ff 91       	pop	r31
     3a8:	ef 91       	pop	r30
     3aa:	8f 91       	pop	r24
     3ac:	0f 90       	pop	r0
     3ae:	0f be       	out	0x3f, r0	; 63
     3b0:	0f 90       	pop	r0
     3b2:	1f 90       	pop	r1
     3b4:	18 95       	reti

000003b6 <__vector_19>:

// прерывание по опустошению буфера передатчика (байт ушел в сдвиговый регистр передатчика)
ISR( USART_UDRE_vect )
{
     3b6:	1f 92       	push	r1
     3b8:	0f 92       	push	r0
     3ba:	0f b6       	in	r0, 0x3f	; 63
     3bc:	0f 92       	push	r0
     3be:	11 24       	eor	r1, r1
     3c0:	8f 93       	push	r24
     3c2:	9f 93       	push	r25
     3c4:	ef 93       	push	r30
     3c6:	ff 93       	push	r31
	unsigned char txbyte;

//	if (PIND & _BV(PORTD6)) PORTD &= ~(1<<PORTD6); else PORTD |= (1<<PORTD6);

	if( tx_ptr < tx_datalen ) {					// если буфер не пуст, то передаем следующий байт. ptr уже указывает на след. байт. Поэтому < datalen а не datalen-1
     3c8:	90 91 14 02 	lds	r25, 0x0214
     3cc:	80 91 20 02 	lds	r24, 0x0220
     3d0:	98 17       	cp	r25, r24
     3d2:	68 f4       	brcc	.+26     	; 0x3ee <__vector_19+0x38>
		txbyte = tx_buff[tx_ptr++];
     3d4:	e0 91 14 02 	lds	r30, 0x0214
     3d8:	81 e0       	ldi	r24, 0x01	; 1
     3da:	8e 0f       	add	r24, r30
     3dc:	80 93 14 02 	sts	0x0214, r24
     3e0:	f0 e0       	ldi	r31, 0x00	; 0
     3e2:	ea 5e       	subi	r30, 0xEA	; 234
     3e4:	fd 4f       	sbci	r31, 0xFD	; 253
     3e6:	80 81       	ld	r24, Z
		UDR0 = txbyte;
     3e8:	80 93 c6 00 	sts	0x00C6, r24
     3ec:	05 c0       	rjmp	.+10     	; 0x3f8 <__vector_19+0x42>
	}
	else {
		UCSR0B &= ~_BV(UDRIE0);					//если данных в fifo больше нет то запрещаем это прерывание
     3ee:	e1 ec       	ldi	r30, 0xC1	; 193
     3f0:	f0 e0       	ldi	r31, 0x00	; 0
     3f2:	80 81       	ld	r24, Z
     3f4:	8f 7d       	andi	r24, 0xDF	; 223
     3f6:	80 83       	st	Z, r24
	}
}
     3f8:	ff 91       	pop	r31
     3fa:	ef 91       	pop	r30
     3fc:	9f 91       	pop	r25
     3fe:	8f 91       	pop	r24
     400:	0f 90       	pop	r0
     402:	0f be       	out	0x3f, r0	; 63
     404:	0f 90       	pop	r0
     406:	1f 90       	pop	r1
     408:	18 95       	reti

0000040a <uart_send_kick>:

// разрешает прерывания по пустому буферу передатчика (начинает отсылку)
void uart_send_kick(){
//	PORTD &= ~(1<<PORTD5);	_delay_ms(0.2);	PORTD |= (1<<PORTD5);
//	if ( (PIND & _BV(pin_RS485_RW)) == 0)							// можно и проверять
	PORTD |= _BV(pin_RS485_RW);										// переключаем драйвер RS485 на передачу
     40a:	5c 9a       	sbi	0x0b, 4	; 11
		
	if ( !(UCSR0B & _BV(UDRIE0)) || !(UCSR0B & _BV(TXCIE0)) )			// и разрешаем прерывания по опустошению буфера передатчика.
     40c:	80 91 c1 00 	lds	r24, 0x00C1
     410:	85 ff       	sbrs	r24, 5
     412:	04 c0       	rjmp	.+8      	; 0x41c <uart_send_kick+0x12>
     414:	80 91 c1 00 	lds	r24, 0x00C1
     418:	86 fd       	sbrc	r24, 6
     41a:	05 c0       	rjmp	.+10     	; 0x426 <uart_send_kick+0x1c>
	UCSR0B |= _BV(UDRIE0) |_BV(TXCIE0);
     41c:	e1 ec       	ldi	r30, 0xC1	; 193
     41e:	f0 e0       	ldi	r31, 0x00	; 0
     420:	80 81       	ld	r24, Z
     422:	80 66       	ori	r24, 0x60	; 96
     424:	80 83       	st	Z, r24
     426:	08 95       	ret

00000428 <crc16>:
u16 crc16(const unsigned char* data_p, unsigned char length){
	unsigned char x,i;
	unsigned short crc = 0;		// CRC-16 XMODEM. Otherwise 0xFFFF

	i = length;
	while (i--){
     428:	7f ef       	ldi	r23, 0xFF	; 255
     42a:	76 0f       	add	r23, r22
     42c:	66 23       	and	r22, r22
     42e:	19 f1       	breq	.+70     	; 0x476 <crc16+0x4e>
     430:	e8 2f       	mov	r30, r24
     432:	f9 2f       	mov	r31, r25
/*
*********************************************************************************************************************
*/
u16 crc16(const unsigned char* data_p, unsigned char length){
	unsigned char x,i;
	unsigned short crc = 0;		// CRC-16 XMODEM. Otherwise 0xFFFF
     434:	80 e0       	ldi	r24, 0x00	; 0
     436:	90 e0       	ldi	r25, 0x00	; 0

	i = length;
	while (i--){
		x = crc >> 8 ^ *data_p++;
     438:	21 91       	ld	r18, Z+
     43a:	29 27       	eor	r18, r25
		x ^= x>>4;
     43c:	32 2f       	mov	r19, r18
     43e:	32 95       	swap	r19
     440:	3f 70       	andi	r19, 0x0F	; 15
     442:	23 27       	eor	r18, r19
		crc = (crc << 8) ^ ((unsigned short)(x << 12)) ^ ((unsigned short)(x <<5)) ^ ((unsigned short)x);
     444:	30 e0       	ldi	r19, 0x00	; 0
     446:	98 2f       	mov	r25, r24
     448:	88 27       	eor	r24, r24
     44a:	82 27       	eor	r24, r18
     44c:	93 27       	eor	r25, r19
     44e:	a9 01       	movw	r20, r18
     450:	54 2f       	mov	r21, r20
     452:	44 27       	eor	r20, r20
     454:	52 95       	swap	r21
     456:	50 7f       	andi	r21, 0xF0	; 240
     458:	84 27       	eor	r24, r20
     45a:	95 27       	eor	r25, r21
     45c:	22 0f       	add	r18, r18
     45e:	33 1f       	adc	r19, r19
     460:	22 95       	swap	r18
     462:	32 95       	swap	r19
     464:	30 7f       	andi	r19, 0xF0	; 240
     466:	32 27       	eor	r19, r18
     468:	20 7f       	andi	r18, 0xF0	; 240
     46a:	32 27       	eor	r19, r18
     46c:	82 27       	eor	r24, r18
     46e:	93 27       	eor	r25, r19
u16 crc16(const unsigned char* data_p, unsigned char length){
	unsigned char x,i;
	unsigned short crc = 0;		// CRC-16 XMODEM. Otherwise 0xFFFF

	i = length;
	while (i--){
     470:	71 50       	subi	r23, 0x01	; 1
     472:	10 f7       	brcc	.-60     	; 0x438 <crc16+0x10>
     474:	08 95       	ret
/*
*********************************************************************************************************************
*/
u16 crc16(const unsigned char* data_p, unsigned char length){
	unsigned char x,i;
	unsigned short crc = 0;		// CRC-16 XMODEM. Otherwise 0xFFFF
     476:	80 e0       	ldi	r24, 0x00	; 0
     478:	90 e0       	ldi	r25, 0x00	; 0
		x = crc >> 8 ^ *data_p++;
		x ^= x>>4;
		crc = (crc << 8) ^ ((unsigned short)(x << 12)) ^ ((unsigned short)(x <<5)) ^ ((unsigned short)x);
	}
	return crc;
}
     47a:	08 95       	ret

0000047c <scanner_mk_req>:
// 110 		- 01-04-6e-04-c2d5
// 103(514) - 01 06 67 04 02 02 1a3a
//


BOOL scanner_mk_req( unsigned char cmd, unsigned char* dop, size_t ldop) {
     47c:	ef 92       	push	r14
     47e:	ff 92       	push	r15
     480:	cf 93       	push	r28
     482:	df 93       	push	r29
	uint8_t packet_size=0;
	uint16_t tmp;

//		tohex(rx_buff, (size_t)8, str, sizeof(str) );

	switch (cmd) {
     484:	87 36       	cpi	r24, 0x67	; 103
     486:	71 f0       	breq	.+28     	; 0x4a4 <scanner_mk_req+0x28>
     488:	18 f4       	brcc	.+6      	; 0x490 <scanner_mk_req+0x14>
     48a:	88 23       	and	r24, r24
     48c:	81 f0       	breq	.+32     	; 0x4ae <scanner_mk_req+0x32>
     48e:	04 c0       	rjmp	.+8      	; 0x498 <scanner_mk_req+0x1c>
     490:	8e 36       	cpi	r24, 0x6E	; 110
     492:	69 f0       	breq	.+26     	; 0x4ae <scanner_mk_req+0x32>
     494:	8f 36       	cpi	r24, 0x6F	; 111
     496:	11 f0       	breq	.+4      	; 0x49c <scanner_mk_req+0x20>
//


BOOL scanner_mk_req( unsigned char cmd, unsigned char* dop, size_t ldop) {
	uint8_t* buffp = tx_buff;
	uint8_t packet_size=0;
     498:	f1 2c       	mov	r15, r1
     49a:	0c c0       	rjmp	.+24     	; 0x4b4 <scanner_mk_req+0x38>

//		tohex(rx_buff, (size_t)8, str, sizeof(str) );

	switch (cmd) {
		case CMD_SCANER_INFO:	packet_size = 4;		break;
		case CMD_SET_DATEIME:	packet_size = 8;		break;
     49c:	68 94       	set
     49e:	ff 24       	eor	r15, r15
     4a0:	f3 f8       	bld	r15, 3
     4a2:	08 c0       	rjmp	.+16     	; 0x4b4 <scanner_mk_req+0x38>
		case CMD_COMMON_INFO:	packet_size = 4;		break;
		case CMD_WOOD_INFO:		packet_size = 6;		break;
     4a4:	0f 2e       	mov	r0, r31
     4a6:	f6 e0       	ldi	r31, 0x06	; 6
     4a8:	ff 2e       	mov	r15, r31
     4aa:	f0 2d       	mov	r31, r0
     4ac:	03 c0       	rjmp	.+6      	; 0x4b4 <scanner_mk_req+0x38>
	uint16_t tmp;

//		tohex(rx_buff, (size_t)8, str, sizeof(str) );

	switch (cmd) {
		case CMD_SCANER_INFO:	packet_size = 4;		break;
     4ae:	68 94       	set
     4b0:	ff 24       	eor	r15, r15
     4b2:	f2 f8       	bld	r15, 2
		case CMD_SET_DATEIME:	packet_size = 8;		break;
		case CMD_COMMON_INFO:	packet_size = 4;		break;
		case CMD_WOOD_INFO:		packet_size = 6;		break;
	}

	if( ( packet_size - ldop - sizeof(o22_header_t) != 0 )
     4b4:	2f 2d       	mov	r18, r15
     4b6:	30 e0       	ldi	r19, 0x00	; 0
     4b8:	24 1b       	sub	r18, r20
     4ba:	35 0b       	sbc	r19, r21
     4bc:	24 30       	cpi	r18, 0x04	; 4
     4be:	31 05       	cpc	r19, r1
     4c0:	b9 f5       	brne	.+110    	; 0x530 <scanner_mk_req+0xb4>
		|| (packet_size +2 > TXBUFF_LEN) )
     4c2:	2f 2d       	mov	r18, r15
     4c4:	30 e0       	ldi	r19, 0x00	; 0
     4c6:	2e 5f       	subi	r18, 0xFE	; 254
     4c8:	3f 4f       	sbci	r19, 0xFF	; 255
     4ca:	2b 30       	cpi	r18, 0x0B	; 11
     4cc:	31 05       	cpc	r19, r1
     4ce:	90 f5       	brcc	.+100    	; 0x534 <scanner_mk_req+0xb8>
			return FALSE;

	ATOMIC_BLOCK(ATOMIC_RESTORESTATE) {
     4d0:	ef b6       	in	r14, 0x3f	; 63
    return 1;
}

static __inline__ uint8_t __iCliRetVal(void)
{
    cli();
     4d2:	f8 94       	cli
//		d_command(0x01);
//		d_putstring(str);

		*buffp++ = SCANNER_ADDR;
     4d4:	e6 e1       	ldi	r30, 0x16	; 22
     4d6:	f2 e0       	ldi	r31, 0x02	; 2
     4d8:	91 e0       	ldi	r25, 0x01	; 1
     4da:	90 83       	st	Z, r25
		*buffp++ = packet_size;
     4dc:	f1 82       	std	Z+1, r15	; 0x01
		*buffp++ = cmd;
     4de:	82 83       	std	Z+2, r24	; 0x02
		*buffp++ = 4;
     4e0:	84 e0       	ldi	r24, 0x04	; 4
     4e2:	83 83       	std	Z+3, r24	; 0x03
		while (ldop>0) {
     4e4:	41 15       	cp	r20, r1
     4e6:	51 05       	cpc	r21, r1
     4e8:	79 f0       	breq	.+30     	; 0x508 <scanner_mk_req+0x8c>
     4ea:	fb 01       	movw	r30, r22
     4ec:	aa e1       	ldi	r26, 0x1A	; 26
     4ee:	b2 e0       	ldi	r27, 0x02	; 2
     4f0:	cb 01       	movw	r24, r22
     4f2:	84 0f       	add	r24, r20
     4f4:	95 1f       	adc	r25, r21
			*buffp++ = *dop++;
     4f6:	21 91       	ld	r18, Z+
     4f8:	2d 93       	st	X+, r18

		*buffp++ = SCANNER_ADDR;
		*buffp++ = packet_size;
		*buffp++ = cmd;
		*buffp++ = 4;
		while (ldop>0) {
     4fa:	e8 17       	cp	r30, r24
     4fc:	f9 07       	cpc	r31, r25
     4fe:	d9 f7       	brne	.-10     	; 0x4f6 <scanner_mk_req+0x7a>
     500:	ea 01       	movw	r28, r20
     502:	c6 5e       	subi	r28, 0xE6	; 230
     504:	dd 4f       	sbci	r29, 0xFD	; 253
     506:	02 c0       	rjmp	.+4      	; 0x50c <scanner_mk_req+0x90>
//		d_putstring(str);

		*buffp++ = SCANNER_ADDR;
		*buffp++ = packet_size;
		*buffp++ = cmd;
		*buffp++ = 4;
     508:	ca e1       	ldi	r28, 0x1A	; 26
     50a:	d2 e0       	ldi	r29, 0x02	; 2
		while (ldop>0) {
			*buffp++ = *dop++;
			ldop--;
		}
		tmp = crc16( tx_buff, packet_size );
     50c:	6f 2d       	mov	r22, r15
     50e:	86 e1       	ldi	r24, 0x16	; 22
     510:	92 e0       	ldi	r25, 0x02	; 2
     512:	0e 94 14 02 	call	0x428	; 0x428 <crc16>
	
		*buffp++ = (unsigned char) ((tmp >>8) & 0xFF);
     516:	98 83       	st	Y, r25
		*buffp++ = (unsigned char) (tmp & 0xFF);
     518:	89 83       	std	Y+1, r24	; 0x01
		tx_ptr = 0;
     51a:	10 92 14 02 	sts	0x0214, r1
		tx_datalen = packet_size+2;
     51e:	f3 94       	inc	r15
     520:	f3 94       	inc	r15
     522:	f0 92 20 02 	sts	0x0220, r15
    (void)__s;
}

static __inline__ void __iRestore(const  uint8_t *__s)
{
    SREG = *__s;
     526:	ef be       	out	0x3f, r14	; 63

	}

//	d_putchar('+');

	uart_send_kick();
     528:	0e 94 05 02 	call	0x40a	; 0x40a <uart_send_kick>
	return TRUE;
     52c:	8f ef       	ldi	r24, 0xFF	; 255
     52e:	03 c0       	rjmp	.+6      	; 0x536 <scanner_mk_req+0xba>
		case CMD_WOOD_INFO:		packet_size = 6;		break;
	}

	if( ( packet_size - ldop - sizeof(o22_header_t) != 0 )
		|| (packet_size +2 > TXBUFF_LEN) )
			return FALSE;
     530:	80 e0       	ldi	r24, 0x00	; 0
     532:	01 c0       	rjmp	.+2      	; 0x536 <scanner_mk_req+0xba>
     534:	80 e0       	ldi	r24, 0x00	; 0

//	d_putchar('+');

	uart_send_kick();
	return TRUE;
}
     536:	df 91       	pop	r29
     538:	cf 91       	pop	r28
     53a:	ff 90       	pop	r15
     53c:	ef 90       	pop	r14
     53e:	08 95       	ret

00000540 <kbd_int_en>:
	}
}


void kbd_int_en(){
	EIMSK |= _BV(PCINT0);								// разрешаем INT0 (подавление дребезга)
     540:	e8 9a       	sbi	0x1d, 0	; 29
     542:	08 95       	ret

00000544 <kbd_init2>:

//============================


void kbd_init2(){
	i2c_Do &= i2c_Free;											// Освобождаем шину
     544:	80 91 74 02 	lds	r24, 0x0274
     548:	98 2f       	mov	r25, r24
     54a:	9f 7b       	andi	r25, 0xBF	; 191
     54c:	90 93 74 02 	sts	0x0274, r25
	if(i2c_Do & (i2c_ERR_NA|i2c_ERR_BF))						// Если запись не удалась
     550:	81 71       	andi	r24, 0x11	; 17
     552:	39 f0       	breq	.+14     	; 0x562 <kbd_init2+0x1e>
	{
		SetTimerTask(kbd_init, 50);								// повторяем попытку
     554:	62 e3       	ldi	r22, 0x32	; 50
     556:	70 e0       	ldi	r23, 0x00	; 0
     558:	88 eb       	ldi	r24, 0xB8	; 184
     55a:	92 e0       	ldi	r25, 0x02	; 2
     55c:	0e 94 98 0a 	call	0x1530	; 0x1530 <SetTimerTask>
     560:	08 95       	ret
	}
	else														// Если все ок, то ...
	{
		EICRA |= (1 <<ISC01 ) | (0<<ISC00);						// по падающему фронту
     562:	e9 e6       	ldi	r30, 0x69	; 105
     564:	f0 e0       	ldi	r31, 0x00	; 0
     566:	80 81       	ld	r24, Z
     568:	82 60       	ori	r24, 0x02	; 2
     56a:	80 83       	st	Z, r24
		EIMSK |= _BV(PCINT0);									// разрешаем INT0
     56c:	e8 9a       	sbi	0x1d, 0	; 29
     56e:	08 95       	ret

00000570 <kbd_init>:
		
	}
}

void kbd_init(){
	if ( (i2c_Do & i2c_Busy) ) {
     570:	80 91 74 02 	lds	r24, 0x0274
     574:	86 ff       	sbrs	r24, 6
     576:	07 c0       	rjmp	.+14     	; 0x586 <kbd_init+0x16>
		SetTimerTask(kbd_init, i2c_Retrain);
     578:	62 e3       	ldi	r22, 0x32	; 50
     57a:	70 e0       	ldi	r23, 0x00	; 0
     57c:	88 eb       	ldi	r24, 0xB8	; 184
     57e:	92 e0       	ldi	r25, 0x02	; 2
     580:	0e 94 98 0a 	call	0x1530	; 0x1530 <SetTimerTask>
     584:	08 95       	ret
	} else {
		i2c_Do = i2c_sawp | i2c_Busy;
     586:	84 e4       	ldi	r24, 0x44	; 68
     588:	80 93 74 02 	sts	0x0274, r24
		i2c_SlaveAddress = KBD_REG;
     58c:	80 e4       	ldi	r24, 0x40	; 64
     58e:	80 93 6b 02 	sts	0x026B, r24
		i2c_index = 0;
     592:	10 92 62 02 	sts	0x0262, r1
		i2c_ByteCount = 1;
     596:	81 e0       	ldi	r24, 0x01	; 1
     598:	80 93 71 02 	sts	0x0271, r24
		i2c_Buffer[0] = 0xFF;
     59c:	8f ef       	ldi	r24, 0xFF	; 255
     59e:	80 93 63 02 	sts	0x0263, r24

		MasterOutFunc = kbd_init2;
     5a2:	82 ea       	ldi	r24, 0xA2	; 162
     5a4:	92 e0       	ldi	r25, 0x02	; 2
     5a6:	90 93 39 01 	sts	0x0139, r25
     5aa:	80 93 38 01 	sts	0x0138, r24
		ErrorOutFunc =  kbd_init2;
     5ae:	90 93 35 01 	sts	0x0135, r25
     5b2:	80 93 34 01 	sts	0x0134, r24
			
		TWCR = 1<<TWSTA|0<<TWSTO|1<<TWINT|0<<TWEA|1<<TWEN|1<<TWIE;
     5b6:	85 ea       	ldi	r24, 0xA5	; 165
     5b8:	80 93 bc 00 	sts	0x00BC, r24
     5bc:	08 95       	ret

000005be <kbd_read>:
		}
	}
}

void kbd_read(){
	if ( (i2c_Do & i2c_Busy) ) {
     5be:	80 91 74 02 	lds	r24, 0x0274
     5c2:	86 ff       	sbrs	r24, 6
     5c4:	07 c0       	rjmp	.+14     	; 0x5d4 <kbd_read+0x16>
		SetTimerTask(kbd_read, 5);
     5c6:	65 e0       	ldi	r22, 0x05	; 5
     5c8:	70 e0       	ldi	r23, 0x00	; 0
     5ca:	8f ed       	ldi	r24, 0xDF	; 223
     5cc:	92 e0       	ldi	r25, 0x02	; 2
     5ce:	0e 94 98 0a 	call	0x1530	; 0x1530 <SetTimerTask>
     5d2:	08 95       	ret
	} else {
		ATOMIC_BLOCK(ATOMIC_RESTORESTATE)
     5d4:	2f b7       	in	r18, 0x3f	; 63
    return 1;
}

static __inline__ uint8_t __iCliRetVal(void)
{
    cli();
     5d6:	f8 94       	cli
		{
			i2c_Do = i2c_sarp | i2c_Busy;
     5d8:	80 e4       	ldi	r24, 0x40	; 64
     5da:	80 93 74 02 	sts	0x0274, r24
			i2c_SlaveAddress = KBD_REG;
     5de:	80 93 6b 02 	sts	0x026B, r24
			i2c_index = 0;
     5e2:	10 92 62 02 	sts	0x0262, r1
			i2c_ByteCount = 1;
     5e6:	81 e0       	ldi	r24, 0x01	; 1
     5e8:	80 93 71 02 	sts	0x0271, r24
			
			MasterOutFunc = kbd_read2;
     5ec:	8f e4       	ldi	r24, 0x4F	; 79
     5ee:	94 e0       	ldi	r25, 0x04	; 4
     5f0:	90 93 39 01 	sts	0x0139, r25
     5f4:	80 93 38 01 	sts	0x0138, r24
			ErrorOutFunc =  kbd_read2;
     5f8:	90 93 35 01 	sts	0x0135, r25
     5fc:	80 93 34 01 	sts	0x0134, r24
			
			TWCR = 1<<TWSTA|0<<TWSTO|1<<TWINT|0<<TWEA|1<<TWEN|1<<TWIE;
     600:	85 ea       	ldi	r24, 0xA5	; 165
     602:	80 93 bc 00 	sts	0x00BC, r24
    (void)__s;
}

static __inline__ void __iRestore(const  uint8_t *__s)
{
    SREG = *__s;
     606:	2f bf       	out	0x3f, r18	; 63
    __asm__ volatile ("" ::: "memory");
     608:	08 95       	ret

0000060a <parser_d>:
//
// В ситуации, когда во входной очереди была команда вывода строки (т.е. указатель на zero-ended массив в RAM или PGM_SPACE, то мы запоминаем команду в m_cmd и указатель в m_ptr
// и при очередном входе в parcer_d руководствуемся ими, а не данными из drv_queue_inp
//

void parser_d(){
     60a:	1f 93       	push	r17
     60c:	cf 93       	push	r28
     60e:	df 93       	push	r29
     610:	00 d0       	rcall	.+0      	; 0x612 <parser_d+0x8>
     612:	cd b7       	in	r28, 0x3d	; 61
     614:	de b7       	in	r29, 0x3e	; 62
	u08 RS_bit;
	u08 data;

//	PORTD &= ~(1<<PORTD6);	_delay_ms(0.1);	PORTD |= (1<<PORTD6);	_delay_ms(0.1);

	if  (m_ByteCount > 0) {							// Уже идет процесс общения. m_Buffer не пуст и parser_m еще не все из него вынул для отправки
     616:	80 91 57 01 	lds	r24, 0x0157
     61a:	88 23       	and	r24, r24
     61c:	39 f0       	breq	.+14     	; 0x62c <parser_d+0x22>
		SetTimerTask(parser_d, 50);
     61e:	62 e3       	ldi	r22, 0x32	; 50
     620:	70 e0       	ldi	r23, 0x00	; 0
     622:	85 e0       	ldi	r24, 0x05	; 5
     624:	93 e0       	ldi	r25, 0x03	; 3
     626:	0e 94 98 0a 	call	0x1530	; 0x1530 <SetTimerTask>
		return;
     62a:	ab c0       	rjmp	.+342    	; 0x782 <parser_d+0x178>
	}
	if ( (m_cmd == DISP_NONE) && (circ_is_empty(&drv_queue_inp)) ) {
     62c:	80 91 56 01 	lds	r24, 0x0156
     630:	81 11       	cpse	r24, r1
     632:	08 c0       	rjmp	.+16     	; 0x644 <parser_d+0x3a>
     634:	80 91 0e 01 	lds	r24, 0x010E
     638:	90 91 0f 01 	lds	r25, 0x010F
     63c:	89 2b       	or	r24, r25
     63e:	09 f4       	brne	.+2      	; 0x642 <parser_d+0x38>
     640:	a0 c0       	rjmp	.+320    	; 0x782 <parser_d+0x178>
     642:	02 c0       	rjmp	.+4      	; 0x648 <parser_d+0x3e>
		return;
	}

	if (m_cmd) {
		cmd = m_cmd;
     644:	89 83       	std	Y+1, r24	; 0x01
     646:	09 c0       	rjmp	.+18     	; 0x65a <parser_d+0x50>
	} else {
		circ_pop( &drv_queue_inp, &cmd, 1);
     648:	41 e0       	ldi	r20, 0x01	; 1
     64a:	50 e0       	ldi	r21, 0x00	; 0
     64c:	be 01       	movw	r22, r28
     64e:	6f 5f       	subi	r22, 0xFF	; 255
     650:	7f 4f       	sbci	r23, 0xFF	; 255
     652:	88 e0       	ldi	r24, 0x08	; 8
     654:	91 e0       	ldi	r25, 0x01	; 1
     656:	0e 94 27 08 	call	0x104e	; 0x104e <circ_pop>
	}
		
	RS_bit = _BV(DS_RS);		// по дефолту - символ
	m_delay = 0;				// и отсутствие паузы в конце посылки. Нужна для отработки комманд дисплеем
     65a:	10 92 53 01 	sts	0x0153, r1
     65e:	10 92 52 01 	sts	0x0152, r1
	m_delay_fl = 0;
     662:	10 92 51 01 	sts	0x0151, r1
		
	switch(cmd) {
     666:	89 81       	ldd	r24, Y+1	; 0x01
     668:	88 30       	cpi	r24, 0x08	; 8
     66a:	81 f0       	breq	.+32     	; 0x68c <parser_d+0x82>
     66c:	38 f4       	brcc	.+14     	; 0x67c <parser_d+0x72>
     66e:	82 30       	cpi	r24, 0x02	; 2
     670:	09 f4       	brne	.+2      	; 0x674 <parser_d+0x6a>
     672:	45 c0       	rjmp	.+138    	; 0x6fe <parser_d+0xf4>
     674:	84 30       	cpi	r24, 0x04	; 4
     676:	09 f4       	brne	.+2      	; 0x67a <parser_d+0x70>
     678:	4a c0       	rjmp	.+148    	; 0x70e <parser_d+0x104>
     67a:	54 c0       	rjmp	.+168    	; 0x724 <parser_d+0x11a>
     67c:	80 31       	cpi	r24, 0x10	; 16
     67e:	11 f1       	breq	.+68     	; 0x6c4 <parser_d+0xba>
     680:	81 31       	cpi	r24, 0x11	; 17
     682:	59 f1       	breq	.+86     	; 0x6da <parser_d+0xd0>
     684:	89 30       	cpi	r24, 0x09	; 9
     686:	09 f0       	breq	.+2      	; 0x68a <parser_d+0x80>
     688:	4d c0       	rjmp	.+154    	; 0x724 <parser_d+0x11a>
     68a:	0b c0       	rjmp	.+22     	; 0x6a2 <parser_d+0x98>

		case DISP_STR:
			circ_pop(&drv_queue_inp, (u08 *)&m_ptr, 2);
     68c:	42 e0       	ldi	r20, 0x02	; 2
     68e:	50 e0       	ldi	r21, 0x00	; 0
     690:	64 e5       	ldi	r22, 0x54	; 84
     692:	71 e0       	ldi	r23, 0x01	; 1
     694:	88 e0       	ldi	r24, 0x08	; 8
     696:	91 e0       	ldi	r25, 0x01	; 1
     698:	0e 94 27 08 	call	0x104e	; 0x104e <circ_pop>
			m_cmd = DISP_STR_N;
     69c:	89 e0       	ldi	r24, 0x09	; 9
     69e:	80 93 56 01 	sts	0x0156, r24
		case DISP_STR_N:
			data = *m_ptr;
     6a2:	e0 91 54 01 	lds	r30, 0x0154
     6a6:	f0 91 55 01 	lds	r31, 0x0155
     6aa:	81 91       	ld	r24, Z+
     6ac:	8a 83       	std	Y+2, r24	; 0x02
			m_ptr++;
     6ae:	f0 93 55 01 	sts	0x0155, r31
     6b2:	e0 93 54 01 	sts	0x0154, r30
			if(data == 0) m_cmd = cmd = DISP_NONE;
     6b6:	81 11       	cpse	r24, r1
     6b8:	37 c0       	rjmp	.+110    	; 0x728 <parser_d+0x11e>
     6ba:	19 82       	std	Y+1, r1	; 0x01
     6bc:	10 92 56 01 	sts	0x0156, r1
		cmd = m_cmd;
	} else {
		circ_pop( &drv_queue_inp, &cmd, 1);
	}
		
	RS_bit = _BV(DS_RS);		// по дефолту - символ
     6c0:	10 e4       	ldi	r17, 0x40	; 64
     6c2:	35 c0       	rjmp	.+106    	; 0x72e <parser_d+0x124>
			m_ptr++;
			if(data == 0) m_cmd = cmd = DISP_NONE;
			break;

		case DISP_STRP:
			circ_pop(&drv_queue_inp, (u08 *)&m_ptr, 2);
     6c4:	42 e0       	ldi	r20, 0x02	; 2
     6c6:	50 e0       	ldi	r21, 0x00	; 0
     6c8:	64 e5       	ldi	r22, 0x54	; 84
     6ca:	71 e0       	ldi	r23, 0x01	; 1
     6cc:	88 e0       	ldi	r24, 0x08	; 8
     6ce:	91 e0       	ldi	r25, 0x01	; 1
     6d0:	0e 94 27 08 	call	0x104e	; 0x104e <circ_pop>
			m_cmd = DISP_STRP_N;
     6d4:	81 e1       	ldi	r24, 0x11	; 17
     6d6:	80 93 56 01 	sts	0x0156, r24
		case DISP_STRP_N:
			data = pgm_read_byte(m_ptr);				//загрузить байт из PGM_SPACE
     6da:	e0 91 54 01 	lds	r30, 0x0154
     6de:	f0 91 55 01 	lds	r31, 0x0155
     6e2:	84 91       	lpm	r24, Z
     6e4:	8a 83       	std	Y+2, r24	; 0x02
			m_ptr++;
     6e6:	31 96       	adiw	r30, 0x01	; 1
     6e8:	f0 93 55 01 	sts	0x0155, r31
     6ec:	e0 93 54 01 	sts	0x0154, r30
			if(data == 0) m_cmd = cmd = DISP_NONE;
     6f0:	81 11       	cpse	r24, r1
     6f2:	1c c0       	rjmp	.+56     	; 0x72c <parser_d+0x122>
     6f4:	19 82       	std	Y+1, r1	; 0x01
     6f6:	10 92 56 01 	sts	0x0156, r1
		cmd = m_cmd;
	} else {
		circ_pop( &drv_queue_inp, &cmd, 1);
	}
		
	RS_bit = _BV(DS_RS);		// по дефолту - символ
     6fa:	10 e4       	ldi	r17, 0x40	; 64
     6fc:	18 c0       	rjmp	.+48     	; 0x72e <parser_d+0x124>
			m_ptr++;
			if(data == 0) m_cmd = cmd = DISP_NONE;
			break;

		case DISP_CMD:	
			m_delay = DS_CMD_DELAY_DEFAULT;				// задержка для выполнения команды. Отрабатывает ПОСЛЕ посылки команды.
     6fe:	8a e0       	ldi	r24, 0x0A	; 10
     700:	90 e0       	ldi	r25, 0x00	; 0
     702:	90 93 53 01 	sts	0x0153, r25
     706:	80 93 52 01 	sts	0x0152, r24
			RS_bit = 0;
     70a:	10 e0       	ldi	r17, 0x00	; 0
     70c:	01 c0       	rjmp	.+2      	; 0x710 <parser_d+0x106>
		cmd = m_cmd;
	} else {
		circ_pop( &drv_queue_inp, &cmd, 1);
	}
		
	RS_bit = _BV(DS_RS);		// по дефолту - символ
     70e:	10 e4       	ldi	r17, 0x40	; 64

		case DISP_CMD:	
			m_delay = DS_CMD_DELAY_DEFAULT;				// задержка для выполнения команды. Отрабатывает ПОСЛЕ посылки команды.
			RS_bit = 0;
		case DISP_CHR:
			circ_pop( &drv_queue_inp, &data, 1);
     710:	41 e0       	ldi	r20, 0x01	; 1
     712:	50 e0       	ldi	r21, 0x00	; 0
     714:	be 01       	movw	r22, r28
     716:	6e 5f       	subi	r22, 0xFE	; 254
     718:	7f 4f       	sbci	r23, 0xFF	; 255
     71a:	88 e0       	ldi	r24, 0x08	; 8
     71c:	91 e0       	ldi	r25, 0x01	; 1
     71e:	0e 94 27 08 	call	0x104e	; 0x104e <circ_pop>
			break;
     722:	05 c0       	rjmp	.+10     	; 0x72e <parser_d+0x124>
		cmd = m_cmd;
	} else {
		circ_pop( &drv_queue_inp, &cmd, 1);
	}
		
	RS_bit = _BV(DS_RS);		// по дефолту - символ
     724:	10 e4       	ldi	r17, 0x40	; 64
     726:	03 c0       	rjmp	.+6      	; 0x72e <parser_d+0x124>
     728:	10 e4       	ldi	r17, 0x40	; 64
     72a:	01 c0       	rjmp	.+2      	; 0x72e <parser_d+0x124>
     72c:	10 e4       	ldi	r17, 0x40	; 64
		case DISP_CHR:
			circ_pop( &drv_queue_inp, &data, 1);
			break;
	}
	// если команда требует паузы, то задать ее величину
	if (cmd) {
     72e:	89 81       	ldd	r24, Y+1	; 0x01
     730:	88 23       	and	r24, r24
     732:	39 f1       	breq	.+78     	; 0x782 <parser_d+0x178>
		m_index = 0;
		m_ByteCount = 0;

		m_Buffer[m_index++] = DISPLAY_CTRL_REG;
     734:	94 e4       	ldi	r25, 0x44	; 68
     736:	90 93 31 02 	sts	0x0231, r25
		m_Buffer[m_index++] = 2;
     73a:	82 e0       	ldi	r24, 0x02	; 2
     73c:	80 93 32 02 	sts	0x0232, r24
		m_Buffer[m_index++] = (0<<DS_E) | (0<<DS_RW) | RS_bit;		// строб, запись, команда
     740:	10 93 33 02 	sts	0x0233, r17
		m_Buffer[m_index++] = (1<<DS_E) | (0<<DS_RW) | RS_bit;		// строб, запись, команда
     744:	21 2f       	mov	r18, r17
     746:	20 61       	ori	r18, 0x10	; 16
     748:	20 93 34 02 	sts	0x0234, r18

		m_Buffer[m_index++] = DISPLAY_DATA_REG;
     74c:	26 e4       	ldi	r18, 0x46	; 70
     74e:	20 93 35 02 	sts	0x0235, r18
		m_Buffer[m_index++] = 1;
     752:	21 e0       	ldi	r18, 0x01	; 1
     754:	20 93 36 02 	sts	0x0236, r18
		m_Buffer[m_index++] = data;									// команда или символ
     758:	2a 81       	ldd	r18, Y+2	; 0x02
     75a:	20 93 37 02 	sts	0x0237, r18

		m_Buffer[m_index++] = DISPLAY_CTRL_REG;
     75e:	90 93 38 02 	sts	0x0238, r25
		m_Buffer[m_index++] = 2;
     762:	80 93 39 02 	sts	0x0239, r24
		m_Buffer[m_index++] = (0<<DS_E) | (0<<DS_RW) | RS_bit;		// строб, запись, команда
     766:	10 93 3a 02 	sts	0x023A, r17
		m_Buffer[m_index++] = (0<<DS_E) | (1<<DS_RW) | (1<<DS_RS);	// строб, запись, команда
     76a:	80 e6       	ldi	r24, 0x60	; 96
     76c:	80 93 3b 02 	sts	0x023B, r24

		m_ByteCount = m_index;
     770:	8b e0       	ldi	r24, 0x0B	; 11
     772:	80 93 57 01 	sts	0x0157, r24
		m_index = 0;
     776:	10 92 58 01 	sts	0x0158, r1
		SetTask(parser_m);
     77a:	8e ec       	ldi	r24, 0xCE	; 206
     77c:	93 e0       	ldi	r25, 0x03	; 3
     77e:	0e 94 71 0a 	call	0x14e2	; 0x14e2 <SetTask>
	}
}
     782:	0f 90       	pop	r0
     784:	0f 90       	pop	r0
     786:	df 91       	pop	r29
     788:	cf 91       	pop	r28
     78a:	1f 91       	pop	r17
     78c:	08 95       	ret

0000078e <parser_m_afterpause>:


void parser_m_afterpause(){
	m_delay_fl = 0;
     78e:	10 92 51 01 	sts	0x0151, r1
	SetTask(parser_d);
     792:	85 e0       	ldi	r24, 0x05	; 5
     794:	93 e0       	ldi	r25, 0x03	; 3
     796:	0e 94 71 0a 	call	0x14e2	; 0x14e2 <SetTask>
     79a:	08 95       	ret

0000079c <parser_m>:
// тут как то надо быть если запись не удалась - if(i2c_Do & (i2c_ERR_NA|i2c_ERR_BF))
// по-видимому, нужно отсигналить парсеру дисплея, чтобы он откатил указатель в своем буфере и  заново сформировал пачку посылок
//
// m_Buffer : <SlaveAddr>, <N>, <byte-1>, <byte-2> ... <byte-N>
//
void parser_m(){
     79c:	cf 93       	push	r28
	u08 cnt = 0;
	ATOMIC_BLOCK(ATOMIC_RESTORESTATE)
     79e:	cf b7       	in	r28, 0x3f	; 63
    return 1;
}

static __inline__ uint8_t __iCliRetVal(void)
{
    cli();
     7a0:	f8 94       	cli
	{
		if (!m_delay_fl)			// проверка семафора(?) задержки. Можно бы, перепоставить себя в очередь, но это произойдет в parser_m_afterpause
     7a2:	80 91 51 01 	lds	r24, 0x0151
     7a6:	81 11       	cpse	r24, r1
     7a8:	77 c0       	rjmp	.+238    	; 0x898 <parser_m+0xfc>
		{
			if ((m_index == 0) && (i2c_Do & i2c_Busy)) {		// если это первый заход в пачке (т.е. нас вызвал parser_d), то подождем освобождения шины. Иначе - шина уже захвачена нами
     7aa:	e0 91 58 01 	lds	r30, 0x0158
     7ae:	e1 11       	cpse	r30, r1
     7b0:	0b c0       	rjmp	.+22     	; 0x7c8 <parser_m+0x2c>
     7b2:	80 91 74 02 	lds	r24, 0x0274
     7b6:	86 ff       	sbrs	r24, 6
     7b8:	07 c0       	rjmp	.+14     	; 0x7c8 <parser_m+0x2c>
				SetTimerTask(parser_m, 5);
     7ba:	65 e0       	ldi	r22, 0x05	; 5
     7bc:	70 e0       	ldi	r23, 0x00	; 0
     7be:	8e ec       	ldi	r24, 0xCE	; 206
     7c0:	93 e0       	ldi	r25, 0x03	; 3
     7c2:	0e 94 98 0a 	call	0x1530	; 0x1530 <SetTimerTask>
     7c6:	68 c0       	rjmp	.+208    	; 0x898 <parser_m+0xfc>
			} else {
				if (m_index < m_ByteCount) {			// m_Buffer : <SlaveAddr>, <N>, <byte-1>, <byte-2> ... <byte-N>
     7c8:	80 91 57 01 	lds	r24, 0x0157
     7cc:	e8 17       	cp	r30, r24
     7ce:	08 f0       	brcs	.+2      	; 0x7d2 <parser_m+0x36>
     7d0:	44 c0       	rjmp	.+136    	; 0x85a <parser_m+0xbe>
					i2c_Do = i2c_sawp | i2c_Busy;
     7d2:	84 e4       	ldi	r24, 0x44	; 68
     7d4:	80 93 74 02 	sts	0x0274, r24
					MasterOutFunc = parser_m;
     7d8:	8e ec       	ldi	r24, 0xCE	; 206
     7da:	93 e0       	ldi	r25, 0x03	; 3
     7dc:	90 93 39 01 	sts	0x0139, r25
     7e0:	80 93 38 01 	sts	0x0138, r24
					ErrorOutFunc =  parser_m;
     7e4:	90 93 35 01 	sts	0x0135, r25
     7e8:	80 93 34 01 	sts	0x0134, r24
					i2c_index = 0;
     7ec:	10 92 62 02 	sts	0x0262, r1
					i2c_SlaveAddress = m_Buffer[m_index++];
     7f0:	ae 2f       	mov	r26, r30
     7f2:	b0 e0       	ldi	r27, 0x00	; 0
     7f4:	af 5c       	subi	r26, 0xCF	; 207
     7f6:	bd 4f       	sbci	r27, 0xFD	; 253
     7f8:	8c 91       	ld	r24, X
     7fa:	80 93 6b 02 	sts	0x026B, r24
					cnt = m_Buffer[m_index++];
     7fe:	52 e0       	ldi	r21, 0x02	; 2
     800:	5e 0f       	add	r21, r30
     802:	50 93 58 01 	sts	0x0158, r21
				if (m_index < m_ByteCount) {			// m_Buffer : <SlaveAddr>, <N>, <byte-1>, <byte-2> ... <byte-N>
					i2c_Do = i2c_sawp | i2c_Busy;
					MasterOutFunc = parser_m;
					ErrorOutFunc =  parser_m;
					i2c_index = 0;
					i2c_SlaveAddress = m_Buffer[m_index++];
     806:	ef 5f       	subi	r30, 0xFF	; 255
					cnt = m_Buffer[m_index++];
     808:	f0 e0       	ldi	r31, 0x00	; 0
     80a:	ef 5c       	subi	r30, 0xCF	; 207
     80c:	fd 4f       	sbci	r31, 0xFD	; 253
     80e:	40 81       	ld	r20, Z
					while (cnt--) {
     810:	44 23       	and	r20, r20
     812:	c9 f0       	breq	.+50     	; 0x846 <parser_m+0xaa>
     814:	90 e0       	ldi	r25, 0x00	; 0
     816:	24 2f       	mov	r18, r20
     818:	29 0f       	add	r18, r25
     81a:	89 2f       	mov	r24, r25
     81c:	35 2f       	mov	r19, r21
     81e:	39 1b       	sub	r19, r25
						i2c_Buffer[i2c_index++] = m_Buffer[m_index++];
     820:	e8 2f       	mov	r30, r24
     822:	f0 e0       	ldi	r31, 0x00	; 0
     824:	ed 59       	subi	r30, 0x9D	; 157
     826:	fd 4f       	sbci	r31, 0xFD	; 253
     828:	a3 2f       	mov	r26, r19
     82a:	a8 0f       	add	r26, r24
     82c:	b0 e0       	ldi	r27, 0x00	; 0
     82e:	af 5c       	subi	r26, 0xCF	; 207
     830:	bd 4f       	sbci	r27, 0xFD	; 253
     832:	9c 91       	ld	r25, X
     834:	90 83       	st	Z, r25
     836:	8f 5f       	subi	r24, 0xFF	; 255
					MasterOutFunc = parser_m;
					ErrorOutFunc =  parser_m;
					i2c_index = 0;
					i2c_SlaveAddress = m_Buffer[m_index++];
					cnt = m_Buffer[m_index++];
					while (cnt--) {
     838:	82 13       	cpse	r24, r18
     83a:	f2 cf       	rjmp	.-28     	; 0x820 <parser_m+0x84>
     83c:	20 93 62 02 	sts	0x0262, r18
     840:	45 0f       	add	r20, r21
     842:	40 93 58 01 	sts	0x0158, r20
						i2c_Buffer[i2c_index++] = m_Buffer[m_index++];
					}
					i2c_ByteCount = i2c_index;
     846:	80 91 62 02 	lds	r24, 0x0262
     84a:	80 93 71 02 	sts	0x0271, r24
					i2c_index = 0;
     84e:	10 92 62 02 	sts	0x0262, r1
					TWCR = 1<<TWSTA|0<<TWSTO|1<<TWINT|0<<TWEA|1<<TWEN|1<<TWIE;
     852:	85 ea       	ldi	r24, 0xA5	; 165
     854:	80 93 bc 00 	sts	0x00BC, r24
     858:	1f c0       	rjmp	.+62     	; 0x898 <parser_m+0xfc>
				} else {
					i2c_Do &= i2c_Free;
     85a:	80 91 74 02 	lds	r24, 0x0274
     85e:	8f 7b       	andi	r24, 0xBF	; 191
     860:	80 93 74 02 	sts	0x0274, r24
					m_index = m_ByteCount = 0;
     864:	10 92 57 01 	sts	0x0157, r1
     868:	10 92 58 01 	sts	0x0158, r1
					if (m_delay) {	// если нужна задержка для выполнения команды, то  флаг паузы - m_pause_fl и SetTimerTask для сброса флага
     86c:	60 91 52 01 	lds	r22, 0x0152
     870:	70 91 53 01 	lds	r23, 0x0153
     874:	61 15       	cp	r22, r1
     876:	71 05       	cpc	r23, r1
     878:	59 f0       	breq	.+22     	; 0x890 <parser_m+0xf4>
						SetTimerTask(parser_m_afterpause, m_delay);
     87a:	87 ec       	ldi	r24, 0xC7	; 199
     87c:	93 e0       	ldi	r25, 0x03	; 3
     87e:	0e 94 98 0a 	call	0x1530	; 0x1530 <SetTimerTask>
						m_delay_fl = 1;
     882:	81 e0       	ldi	r24, 0x01	; 1
     884:	80 93 51 01 	sts	0x0151, r24
						m_delay = 0;
     888:	10 92 53 01 	sts	0x0153, r1
     88c:	10 92 52 01 	sts	0x0152, r1
					}
					SetTask(parser_d);
     890:	85 e0       	ldi	r24, 0x05	; 5
     892:	93 e0       	ldi	r25, 0x03	; 3
     894:	0e 94 71 0a 	call	0x14e2	; 0x14e2 <SetTask>
    (void)__s;
}

static __inline__ void __iRestore(const  uint8_t *__s)
{
    SREG = *__s;
     898:	cf bf       	out	0x3f, r28	; 63
				}
			}
		}
	}
} // И уходим обратно в IIC_ultimate, где выходим из прерывания, ну или в TaskManager
     89a:	cf 91       	pop	r28
     89c:	08 95       	ret

0000089e <kbd_read2>:
// ON/OFF	- fb - 11111011
//
// LED		- f7 - 11110111
//

void kbd_read2(){
     89e:	df 92       	push	r13
     8a0:	ef 92       	push	r14
     8a2:	ff 92       	push	r15
     8a4:	0f 93       	push	r16
     8a6:	1f 93       	push	r17
     8a8:	cf 93       	push	r28
     8aa:	df 93       	push	r29
	u08 nbit, kf = ~(i2c_Buffer[0]);
     8ac:	d0 90 63 02 	lds	r13, 0x0263
     8b0:	d0 94       	com	r13
	
	i2c_Do &= i2c_Free;											// Освобождаем шину
     8b2:	80 91 74 02 	lds	r24, 0x0274
     8b6:	98 2f       	mov	r25, r24
     8b8:	9f 7b       	andi	r25, 0xBF	; 191
     8ba:	90 93 74 02 	sts	0x0274, r25
	if(i2c_Do & (i2c_ERR_NA|i2c_ERR_BF))						// Если запись не удалась
     8be:	81 71       	andi	r24, 0x11	; 17
     8c0:	39 f0       	breq	.+14     	; 0x8d0 <kbd_read2+0x32>
	{
		SetTimerTask(kbd_read, i2c_Retrain);					// повторяем попытку
     8c2:	62 e3       	ldi	r22, 0x32	; 50
     8c4:	70 e0       	ldi	r23, 0x00	; 0
     8c6:	8f ed       	ldi	r24, 0xDF	; 223
     8c8:	92 e0       	ldi	r25, 0x02	; 2
     8ca:	0e 94 98 0a 	call	0x1530	; 0x1530 <SetTimerTask>
     8ce:	22 c0       	rjmp	.+68     	; 0x914 <__stack+0x15>

void kbd_read2(){
	u08 nbit, kf = ~(i2c_Buffer[0]);
	
	i2c_Do &= i2c_Free;											// Освобождаем шину
	if(i2c_Do & (i2c_ERR_NA|i2c_ERR_BF))						// Если запись не удалась
     8d0:	c0 e0       	ldi	r28, 0x00	; 0
     8d2:	d0 e0       	ldi	r29, 0x00	; 0
	{
		SetTimerTask(kbd_read, i2c_Retrain);					// повторяем попытку
	} else {													// Если все ок, то ...
		for(nbit=0; nbit<8; nbit++) {
			if (kf & (1<<nbit) ) {
     8d4:	0d 2d       	mov	r16, r13
     8d6:	10 e0       	ldi	r17, 0x00	; 0
				lastKey = kf & (1<<nbit);
     8d8:	ee 24       	eor	r14, r14
     8da:	e3 94       	inc	r14
     8dc:	f1 2c       	mov	r15, r1
	if(i2c_Do & (i2c_ERR_NA|i2c_ERR_BF))						// Если запись не удалась
	{
		SetTimerTask(kbd_read, i2c_Retrain);					// повторяем попытку
	} else {													// Если все ок, то ...
		for(nbit=0; nbit<8; nbit++) {
			if (kf & (1<<nbit) ) {
     8de:	c8 01       	movw	r24, r16
     8e0:	0c 2e       	mov	r0, r28
     8e2:	02 c0       	rjmp	.+4      	; 0x8e8 <kbd_read2+0x4a>
     8e4:	95 95       	asr	r25
     8e6:	87 95       	ror	r24
     8e8:	0a 94       	dec	r0
     8ea:	e2 f7       	brpl	.-8      	; 0x8e4 <kbd_read2+0x46>
     8ec:	80 ff       	sbrs	r24, 0
     8ee:	0e c0       	rjmp	.+28     	; 0x90c <__stack+0xd>
				lastKey = kf & (1<<nbit);
     8f0:	b7 01       	movw	r22, r14
     8f2:	0c 2e       	mov	r0, r28
     8f4:	02 c0       	rjmp	.+4      	; 0x8fa <kbd_read2+0x5c>
     8f6:	66 0f       	add	r22, r22
     8f8:	77 1f       	adc	r23, r23
     8fa:	0a 94       	dec	r0
     8fc:	e2 f7       	brpl	.-8      	; 0x8f6 <kbd_read2+0x58>
     8fe:	6d 21       	and	r22, r13
     900:	60 93 50 01 	sts	0x0150, r22
				sendMessage(MSG_KEY_PRESS, lastKey);
     904:	70 e0       	ldi	r23, 0x00	; 0
     906:	81 e0       	ldi	r24, 0x01	; 1
     908:	0e 94 a7 0c 	call	0x194e	; 0x194e <sendMessage>
     90c:	21 96       	adiw	r28, 0x01	; 1
	i2c_Do &= i2c_Free;											// Освобождаем шину
	if(i2c_Do & (i2c_ERR_NA|i2c_ERR_BF))						// Если запись не удалась
	{
		SetTimerTask(kbd_read, i2c_Retrain);					// повторяем попытку
	} else {													// Если все ок, то ...
		for(nbit=0; nbit<8; nbit++) {
     90e:	c8 30       	cpi	r28, 0x08	; 8
     910:	d1 05       	cpc	r29, r1
     912:	29 f7       	brne	.-54     	; 0x8de <kbd_read2+0x40>
				lastKey = kf & (1<<nbit);
				sendMessage(MSG_KEY_PRESS, lastKey);
			}
		}
	}
}
     914:	df 91       	pop	r29
     916:	cf 91       	pop	r28
     918:	1f 91       	pop	r17
     91a:	0f 91       	pop	r16
     91c:	ff 90       	pop	r15
     91e:	ef 90       	pop	r14
     920:	df 90       	pop	r13
     922:	08 95       	ret

00000924 <d_init>:


// ф-ии работы с дисплеем верхнего уровня

void d_init() {
	circ_init( &drv_queue_inp);
     924:	88 e0       	ldi	r24, 0x08	; 8
     926:	91 e0       	ldi	r25, 0x01	; 1
     928:	0e 94 a4 07 	call	0xf48	; 0xf48 <circ_init>
	circ_init( &drv_queue_out);
     92c:	80 e0       	ldi	r24, 0x00	; 0
     92e:	91 e0       	ldi	r25, 0x01	; 1
     930:	0e 94 a4 07 	call	0xf48	; 0xf48 <circ_init>
     934:	08 95       	ret

00000936 <d_command>:
	column %= 0x40;
	cmd = 0x80 | (row * 0x40 + column);
	d_command(cmd);
}

void d_command(u08 cmd){
     936:	cf 93       	push	r28
     938:	c8 2f       	mov	r28, r24
	circ_push_byte( &drv_queue_inp, DISP_CMD);
     93a:	62 e0       	ldi	r22, 0x02	; 2
     93c:	88 e0       	ldi	r24, 0x08	; 8
     93e:	91 e0       	ldi	r25, 0x01	; 1
     940:	0e 94 f0 07 	call	0xfe0	; 0xfe0 <circ_push_byte>
	circ_push_byte( &drv_queue_inp, cmd);
     944:	6c 2f       	mov	r22, r28
     946:	88 e0       	ldi	r24, 0x08	; 8
     948:	91 e0       	ldi	r25, 0x01	; 1
     94a:	0e 94 f0 07 	call	0xfe0	; 0xfe0 <circ_push_byte>
	SetTask(parser_d);
     94e:	85 e0       	ldi	r24, 0x05	; 5
     950:	93 e0       	ldi	r25, 0x03	; 3
     952:	0e 94 71 0a 	call	0x14e2	; 0x14e2 <SetTask>
}
     956:	cf 91       	pop	r28
     958:	08 95       	ret

0000095a <d_clear>:
	d_command(0x0E);			// display On, cursor On, blink Off
	SetTask(parser_d);
}

void d_clear() {
	d_command(0x01);			// clear, cursor = 0, shift=0, i/d=1
     95a:	81 e0       	ldi	r24, 0x01	; 1
     95c:	0e 94 9b 04 	call	0x936	; 0x936 <d_command>
	SetTask(parser_d);
     960:	85 e0       	ldi	r24, 0x05	; 5
     962:	93 e0       	ldi	r25, 0x03	; 3
     964:	0e 94 71 0a 	call	0x14e2	; 0x14e2 <SetTask>
     968:	08 95       	ret

0000096a <d_setcursor>:
}

void d_setcursor (u08 column, u08 row) {
	u08 cmd;
	row %= 2;
     96a:	61 70       	andi	r22, 0x01	; 1
	column %= 0x40;
     96c:	8f 73       	andi	r24, 0x3F	; 63
	cmd = 0x80 | (row * 0x40 + column);
     96e:	90 e4       	ldi	r25, 0x40	; 64
     970:	69 9f       	mul	r22, r25
     972:	80 0d       	add	r24, r0
     974:	11 24       	eor	r1, r1
	d_command(cmd);
     976:	80 68       	ori	r24, 0x80	; 128
     978:	0e 94 9b 04 	call	0x936	; 0x936 <d_command>
     97c:	08 95       	ret

0000097e <d_putstring>:
	circ_push_byte( &drv_queue_inp, DISP_CHR);
	circ_push_byte( &drv_queue_inp, chr);
	SetTask(parser_d);
}

void d_putstring(char *str){
     97e:	cf 93       	push	r28
     980:	df 93       	push	r29
     982:	00 d0       	rcall	.+0      	; 0x984 <d_putstring+0x6>
     984:	cd b7       	in	r28, 0x3d	; 61
     986:	de b7       	in	r29, 0x3e	; 62
     988:	9a 83       	std	Y+2, r25	; 0x02
     98a:	89 83       	std	Y+1, r24	; 0x01
	circ_push_byte( &drv_queue_inp, DISP_STR);
     98c:	68 e0       	ldi	r22, 0x08	; 8
     98e:	88 e0       	ldi	r24, 0x08	; 8
     990:	91 e0       	ldi	r25, 0x01	; 1
     992:	0e 94 f0 07 	call	0xfe0	; 0xfe0 <circ_push_byte>
	circ_push( &drv_queue_inp, (u08*)&str, 2);
     996:	42 e0       	ldi	r20, 0x02	; 2
     998:	50 e0       	ldi	r21, 0x00	; 0
     99a:	be 01       	movw	r22, r28
     99c:	6f 5f       	subi	r22, 0xFF	; 255
     99e:	7f 4f       	sbci	r23, 0xFF	; 255
     9a0:	88 e0       	ldi	r24, 0x08	; 8
     9a2:	91 e0       	ldi	r25, 0x01	; 1
     9a4:	0e 94 ac 07 	call	0xf58	; 0xf58 <circ_push>
	SetTask(parser_d);
     9a8:	85 e0       	ldi	r24, 0x05	; 5
     9aa:	93 e0       	ldi	r25, 0x03	; 3
     9ac:	0e 94 71 0a 	call	0x14e2	; 0x14e2 <SetTask>
}
     9b0:	0f 90       	pop	r0
     9b2:	0f 90       	pop	r0
     9b4:	df 91       	pop	r29
     9b6:	cf 91       	pop	r28
     9b8:	08 95       	ret

000009ba <d_putstringP>:
	circ_push_byte( &drv_queue_inp, DISP_STR);
	circ_push( &drv_queue_inp, (u08*)(r?&str1:&str0), 2);
	SetTask(parser_d);
}

void d_putstringP(const char *str){
     9ba:	cf 93       	push	r28
     9bc:	df 93       	push	r29
     9be:	00 d0       	rcall	.+0      	; 0x9c0 <d_putstringP+0x6>
     9c0:	cd b7       	in	r28, 0x3d	; 61
     9c2:	de b7       	in	r29, 0x3e	; 62
     9c4:	9a 83       	std	Y+2, r25	; 0x02
     9c6:	89 83       	std	Y+1, r24	; 0x01
	circ_push_byte( &drv_queue_inp, DISP_STRP);
     9c8:	60 e1       	ldi	r22, 0x10	; 16
     9ca:	88 e0       	ldi	r24, 0x08	; 8
     9cc:	91 e0       	ldi	r25, 0x01	; 1
     9ce:	0e 94 f0 07 	call	0xfe0	; 0xfe0 <circ_push_byte>
	circ_push( &drv_queue_inp, (u08*)&str, 2);
     9d2:	42 e0       	ldi	r20, 0x02	; 2
     9d4:	50 e0       	ldi	r21, 0x00	; 0
     9d6:	be 01       	movw	r22, r28
     9d8:	6f 5f       	subi	r22, 0xFF	; 255
     9da:	7f 4f       	sbci	r23, 0xFF	; 255
     9dc:	88 e0       	ldi	r24, 0x08	; 8
     9de:	91 e0       	ldi	r25, 0x01	; 1
     9e0:	0e 94 ac 07 	call	0xf58	; 0xf58 <circ_push>
	SetTask(parser_d);
     9e4:	85 e0       	ldi	r24, 0x05	; 5
     9e6:	93 e0       	ldi	r25, 0x03	; 3
     9e8:	0e 94 71 0a 	call	0x14e2	; 0x14e2 <SetTask>
}
     9ec:	0f 90       	pop	r0
     9ee:	0f 90       	pop	r0
     9f0:	df 91       	pop	r29
     9f2:	cf 91       	pop	r28
     9f4:	08 95       	ret

000009f6 <d_start>:

void d_start() {
	circ_push_byte( &drv_queue_inp, DISP_CMD);
     9f6:	62 e0       	ldi	r22, 0x02	; 2
     9f8:	88 e0       	ldi	r24, 0x08	; 8
     9fa:	91 e0       	ldi	r25, 0x01	; 1
     9fc:	0e 94 f0 07 	call	0xfe0	; 0xfe0 <circ_push_byte>
	circ_push_byte( &drv_queue_inp, 0x01);		// clear, cursor = 0, shift=0, i/d=1
     a00:	61 e0       	ldi	r22, 0x01	; 1
     a02:	88 e0       	ldi	r24, 0x08	; 8
     a04:	91 e0       	ldi	r25, 0x01	; 1
     a06:	0e 94 f0 07 	call	0xfe0	; 0xfe0 <circ_push_byte>
	circ_push_byte( &drv_queue_inp, DISP_CMD);
     a0a:	62 e0       	ldi	r22, 0x02	; 2
     a0c:	88 e0       	ldi	r24, 0x08	; 8
     a0e:	91 e0       	ldi	r25, 0x01	; 1
     a10:	0e 94 f0 07 	call	0xfe0	; 0xfe0 <circ_push_byte>
	circ_push_byte( &drv_queue_inp, 0x0E);		// display On, cursor On, blink Off
     a14:	6e e0       	ldi	r22, 0x0E	; 14
     a16:	88 e0       	ldi	r24, 0x08	; 8
     a18:	91 e0       	ldi	r25, 0x01	; 1
     a1a:	0e 94 f0 07 	call	0xfe0	; 0xfe0 <circ_push_byte>
	SetTask(parser_d);
     a1e:	85 e0       	ldi	r24, 0x05	; 5
     a20:	93 e0       	ldi	r25, 0x03	; 3
     a22:	0e 94 71 0a 	call	0x14e2	; 0x14e2 <SetTask>
     a26:	08 95       	ret

00000a28 <__vector_1>:
// притянули бит в 0 - прерывание
// прочитали - прерывание снялось
// отпустили бит в 1 - прерывание
// прочитали - прерывание снялось
//
ISR(INT0_vect) {
     a28:	1f 92       	push	r1
     a2a:	0f 92       	push	r0
     a2c:	0f b6       	in	r0, 0x3f	; 63
     a2e:	0f 92       	push	r0
     a30:	11 24       	eor	r1, r1
     a32:	2f 93       	push	r18
     a34:	3f 93       	push	r19
     a36:	4f 93       	push	r20
     a38:	5f 93       	push	r21
     a3a:	6f 93       	push	r22
     a3c:	7f 93       	push	r23
     a3e:	8f 93       	push	r24
     a40:	9f 93       	push	r25
     a42:	af 93       	push	r26
     a44:	bf 93       	push	r27
     a46:	ef 93       	push	r30
     a48:	ff 93       	push	r31
	EIMSK &= ~_BV(PCINT0);								// запрещаем INT0
     a4a:	e8 98       	cbi	0x1d, 0	; 29
	SetTask(kbd_read);
     a4c:	8f ed       	ldi	r24, 0xDF	; 223
     a4e:	92 e0       	ldi	r25, 0x02	; 2
     a50:	0e 94 71 0a 	call	0x14e2	; 0x14e2 <SetTask>
	SetTimerTask(kbd_int_en, KBD_DEATHTIME);
     a54:	68 ec       	ldi	r22, 0xC8	; 200
     a56:	70 e0       	ldi	r23, 0x00	; 0
     a58:	80 ea       	ldi	r24, 0xA0	; 160
     a5a:	92 e0       	ldi	r25, 0x02	; 2
     a5c:	0e 94 98 0a 	call	0x1530	; 0x1530 <SetTimerTask>
}
     a60:	ff 91       	pop	r31
     a62:	ef 91       	pop	r30
     a64:	bf 91       	pop	r27
     a66:	af 91       	pop	r26
     a68:	9f 91       	pop	r25
     a6a:	8f 91       	pop	r24
     a6c:	7f 91       	pop	r23
     a6e:	6f 91       	pop	r22
     a70:	5f 91       	pop	r21
     a72:	4f 91       	pop	r20
     a74:	3f 91       	pop	r19
     a76:	2f 91       	pop	r18
     a78:	0f 90       	pop	r0
     a7a:	0f be       	out	0x3f, r0	; 63
     a7c:	0f 90       	pop	r0
     a7e:	1f 90       	pop	r1
     a80:	18 95       	reti

00000a82 <dispMenu>:


unsigned char dispMenu(msg_par par) {
	menuItem* tempMenu;

	d_clear();
     a82:	0e 94 ad 04 	call	0x95a	; 0x95a <d_clear>
	d_setcursor(0,0);
     a86:	60 e0       	ldi	r22, 0x00	; 0
     a88:	80 e0       	ldi	r24, 0x00	; 0
     a8a:	0e 94 b5 04 	call	0x96a	; 0x96a <d_setcursor>
	
	tempMenu = (menuItem*)pgm_read_word(&selectedMenuItem->Parent);
     a8e:	e0 91 60 02 	lds	r30, 0x0260
     a92:	f0 91 61 02 	lds	r31, 0x0261
     a96:	34 96       	adiw	r30, 0x04	; 4
     a98:	85 91       	lpm	r24, Z+
     a9a:	94 91       	lpm	r25, Z
	if ((void*)tempMenu == (void*)&NULL_ENTRY) { // мы на верхнем уровне
     a9c:	22 e0       	ldi	r18, 0x02	; 2
     a9e:	88 36       	cpi	r24, 0x68	; 104
     aa0:	92 07       	cpc	r25, r18
     aa2:	29 f4       	brne	.+10     	; 0xaae <dispMenu+0x2c>
		d_putstringP(PSTR("MENU:"));
     aa4:	8a ef       	ldi	r24, 0xFA	; 250
     aa6:	91 e0       	ldi	r25, 0x01	; 1
     aa8:	0e 94 dd 04 	call	0x9ba	; 0x9ba <d_putstringP>
     aac:	03 c0       	rjmp	.+6      	; 0xab4 <dispMenu+0x32>
	} else {
		d_putstringP(tempMenu->Text);
     aae:	09 96       	adiw	r24, 0x09	; 9
     ab0:	0e 94 dd 04 	call	0x9ba	; 0x9ba <d_putstringP>
	}

	d_setcursor(0,1);
     ab4:	61 e0       	ldi	r22, 0x01	; 1
     ab6:	80 e0       	ldi	r24, 0x00	; 0
     ab8:	0e 94 b5 04 	call	0x96a	; 0x96a <d_setcursor>
	d_putstringP(selectedMenuItem->Text);
     abc:	80 91 60 02 	lds	r24, 0x0260
     ac0:	90 91 61 02 	lds	r25, 0x0261
     ac4:	09 96       	adiw	r24, 0x09	; 9
     ac6:	0e 94 dd 04 	call	0x9ba	; 0x9ba <d_putstringP>
	
	return (1);
}
     aca:	81 e0       	ldi	r24, 0x01	; 1
     acc:	08 95       	ret

00000ace <selectMenu>:

void taskMenu(){
	startMenu();
}
uint8_t selectMenu(msg_par par) {
	switch (par) {
     ace:	85 30       	cpi	r24, 0x05	; 5
     ad0:	91 05       	cpc	r25, r1
     ad2:	19 f0       	breq	.+6      	; 0xada <selectMenu+0xc>
     ad4:	06 97       	sbiw	r24, 0x06	; 6
     ad6:	31 f0       	breq	.+12     	; 0xae4 <selectMenu+0x16>
     ad8:	09 c0       	rjmp	.+18     	; 0xaec <selectMenu+0x1e>
		}
		case MENU_TIME: { // тут обработать выбор пункта Mode 3
			break;
		}
		case MENU_TEST1: {
			SetTask(nvram_write);
     ada:	82 ef       	ldi	r24, 0xF2	; 242
     adc:	95 e0       	ldi	r25, 0x05	; 5
     ade:	0e 94 71 0a 	call	0x14e2	; 0x14e2 <SetTask>
			break;
     ae2:	04 c0       	rjmp	.+8      	; 0xaec <selectMenu+0x1e>
		}
		case MENU_TEST2: {
			SetTask(nvram_read);
     ae4:	8d e2       	ldi	r24, 0x2D	; 45
     ae6:	96 e0       	ldi	r25, 0x06	; 6
     ae8:	0e 94 71 0a 	call	0x14e2	; 0x14e2 <SetTask>
			break;
		}
	}

	// после выбора возвращаемся в главное меню.
	SetTask(taskMenu);
     aec:	8f ee       	ldi	r24, 0xEF	; 239
     aee:	95 e0       	ldi	r25, 0x05	; 5
     af0:	0e 94 71 0a 	call	0x14e2	; 0x14e2 <SetTask>
	return 1;
}
     af4:	81 e0       	ldi	r24, 0x01	; 1
     af6:	08 95       	ret

00000af8 <menuChange>:


void menuChange(menuItem* NewMenu)
{
	if ((void*)NewMenu == (void*)&NULL_ENTRY)
     af8:	22 e0       	ldi	r18, 0x02	; 2
     afa:	88 36       	cpi	r24, 0x68	; 104
     afc:	92 07       	cpc	r25, r18
     afe:	21 f0       	breq	.+8      	; 0xb08 <menuChange+0x10>
	return;

	selectedMenuItem = NewMenu;
     b00:	90 93 61 02 	sts	0x0261, r25
     b04:	80 93 60 02 	sts	0x0260, r24
     b08:	08 95       	ret

00000b0a <menuKey>:
	
	return (1);
}

uint8_t menuKey(msg_par par) {
	switch (par) {
     b0a:	80 31       	cpi	r24, 0x10	; 16
     b0c:	91 05       	cpc	r25, r1
     b0e:	c9 f0       	breq	.+50     	; 0xb42 <menuKey+0x38>
     b10:	30 f4       	brcc	.+12     	; 0xb1e <menuKey+0x14>
     b12:	00 97       	sbiw	r24, 0x00	; 0
     b14:	09 f4       	brne	.+2      	; 0xb18 <menuKey+0xe>
     b16:	4b c0       	rjmp	.+150    	; 0xbae <menuKey+0xa4>
     b18:	02 97       	sbiw	r24, 0x02	; 2
     b1a:	e1 f0       	breq	.+56     	; 0xb54 <menuKey+0x4a>
     b1c:	44 c0       	rjmp	.+136    	; 0xba6 <menuKey+0x9c>
     b1e:	80 32       	cpi	r24, 0x20	; 32
     b20:	91 05       	cpc	r25, r1
     b22:	29 f0       	breq	.+10     	; 0xb2e <menuKey+0x24>
     b24:	80 34       	cpi	r24, 0x40	; 64
     b26:	91 05       	cpc	r25, r1
     b28:	09 f4       	brne	.+2      	; 0xb2c <menuKey+0x22>
     b2a:	34 c0       	rjmp	.+104    	; 0xb94 <menuKey+0x8a>
     b2c:	3c c0       	rjmp	.+120    	; 0xba6 <menuKey+0x9c>
		case 0: {
			return 1;
		}
		case KEY_LEFT: {
			menuChange(PREVIOUS);
     b2e:	e0 91 60 02 	lds	r30, 0x0260
     b32:	f0 91 61 02 	lds	r31, 0x0261
     b36:	32 96       	adiw	r30, 0x02	; 2
     b38:	85 91       	lpm	r24, Z+
     b3a:	94 91       	lpm	r25, Z
     b3c:	0e 94 7c 05 	call	0xaf8	; 0xaf8 <menuChange>
			break;
     b40:	32 c0       	rjmp	.+100    	; 0xba6 <menuKey+0x9c>
		}
		case KEY_RIGHT: {
			menuChange(NEXT);
     b42:	e0 91 60 02 	lds	r30, 0x0260
     b46:	f0 91 61 02 	lds	r31, 0x0261
     b4a:	85 91       	lpm	r24, Z+
     b4c:	94 91       	lpm	r25, Z
     b4e:	0e 94 7c 05 	call	0xaf8	; 0xaf8 <menuChange>
			break;
     b52:	29 c0       	rjmp	.+82     	; 0xba6 <menuKey+0x9c>
		}
		case KEY_SELECT:		 // выбор пункта
		{
			uint8_t sel;
			sel = SELECT;
     b54:	80 91 60 02 	lds	r24, 0x0260
     b58:	90 91 61 02 	lds	r25, 0x0261
     b5c:	fc 01       	movw	r30, r24
     b5e:	38 96       	adiw	r30, 0x08	; 8
     b60:	e4 91       	lpm	r30, Z
			if (sel != 0) {
     b62:	ee 23       	and	r30, r30
     b64:	81 f0       	breq	.+32     	; 0xb86 <menuKey+0x7c>
				sendMessage(MSG_MENU_SELECT, sel);
     b66:	6e 2f       	mov	r22, r30
     b68:	70 e0       	ldi	r23, 0x00	; 0
     b6a:	85 e0       	ldi	r24, 0x05	; 5
     b6c:	0e 94 a7 0c 	call	0x194e	; 0x194e <sendMessage>

				killHandler(MSG_KEY_PRESS, &menuKey);
     b70:	65 e8       	ldi	r22, 0x85	; 133
     b72:	75 e0       	ldi	r23, 0x05	; 5
     b74:	81 e0       	ldi	r24, 0x01	; 1
     b76:	0e 94 42 0c 	call	0x1884	; 0x1884 <killHandler>
				killHandler(MSG_DISP_REFRESH, &dispMenu);
     b7a:	61 e4       	ldi	r22, 0x41	; 65
     b7c:	75 e0       	ldi	r23, 0x05	; 5
     b7e:	86 e0       	ldi	r24, 0x06	; 6
     b80:	0e 94 42 0c 	call	0x1884	; 0x1884 <killHandler>

				return (1);
     b84:	14 c0       	rjmp	.+40     	; 0xbae <menuKey+0xa4>
				} else {
				menuChange(CHILD);
     b86:	06 96       	adiw	r24, 0x06	; 6
     b88:	fc 01       	movw	r30, r24
     b8a:	85 91       	lpm	r24, Z+
     b8c:	94 91       	lpm	r25, Z
     b8e:	0e 94 7c 05 	call	0xaf8	; 0xaf8 <menuChange>
			}
			break;
     b92:	09 c0       	rjmp	.+18     	; 0xba6 <menuKey+0x9c>
		}
		case KEY_MENU:			// отмена выбора (возврат)
		{
			menuChange(PARENT);
     b94:	e0 91 60 02 	lds	r30, 0x0260
     b98:	f0 91 61 02 	lds	r31, 0x0261
     b9c:	34 96       	adiw	r30, 0x04	; 4
     b9e:	85 91       	lpm	r24, Z+
     ba0:	94 91       	lpm	r25, Z
     ba2:	0e 94 7c 05 	call	0xaf8	; 0xaf8 <menuChange>
			break;
		}
	}
	dispMenu(0);
     ba6:	80 e0       	ldi	r24, 0x00	; 0
     ba8:	90 e0       	ldi	r25, 0x00	; 0
     baa:	0e 94 41 05 	call	0xa82	; 0xa82 <dispMenu>
	return (1);
}
     bae:	81 e0       	ldi	r24, 0x01	; 1
     bb0:	08 95       	ret

00000bb2 <startMenu>:

uint8_t startMenu() {
	selectedMenuItem = (menuItem*)&m_s1i2;
     bb2:	88 e4       	ldi	r24, 0x48	; 72
     bb4:	92 e0       	ldi	r25, 0x02	; 2
     bb6:	90 93 61 02 	sts	0x0261, r25
     bba:	80 93 60 02 	sts	0x0260, r24

	dispMenu(0);
     bbe:	80 e0       	ldi	r24, 0x00	; 0
     bc0:	90 e0       	ldi	r25, 0x00	; 0
     bc2:	0e 94 41 05 	call	0xa82	; 0xa82 <dispMenu>
	setHandler(MSG_KEY_PRESS, &menuKey);
     bc6:	65 e8       	ldi	r22, 0x85	; 133
     bc8:	75 e0       	ldi	r23, 0x05	; 5
     bca:	81 e0       	ldi	r24, 0x01	; 1
     bcc:	0e 94 1c 0c 	call	0x1838	; 0x1838 <setHandler>
	setHandler(MSG_DISP_REFRESH, &dispMenu);
     bd0:	61 e4       	ldi	r22, 0x41	; 65
     bd2:	75 e0       	ldi	r23, 0x05	; 5
     bd4:	86 e0       	ldi	r24, 0x06	; 6
     bd6:	0e 94 1c 0c 	call	0x1838	; 0x1838 <setHandler>
	return (0);
}
     bda:	80 e0       	ldi	r24, 0x00	; 0
     bdc:	08 95       	ret

00000bde <taskMenu>:
MAKE_MENU(m_s3i1,  m_s3i2,    NULL_ENTRY,  m_s1i2,     NULL_ENTRY,       MENU_DATE, "Date");
MAKE_MENU(m_s3i2,  NULL_ENTRY,m_s3i1,      m_s1i2,     NULL_ENTRY,       MENU_TIME, "Time");


void taskMenu(){
	startMenu();
     bde:	0e 94 d9 05 	call	0xbb2	; 0xbb2 <startMenu>
     be2:	08 95       	ret

00000be4 <nvram_write>:
	sprintf( str1, "%d", nv_cnt);
	d_putstring(str1);
}

void nvram_write() {
	nv_cnt++;
     be4:	80 91 32 01 	lds	r24, 0x0132
     be8:	90 91 33 01 	lds	r25, 0x0133
     bec:	01 96       	adiw	r24, 0x01	; 1
     bee:	90 93 33 01 	sts	0x0133, r25
     bf2:	80 93 32 01 	sts	0x0132, r24
	if ( (i2c_Do & i2c_Busy) ) {
     bf6:	80 91 74 02 	lds	r24, 0x0274
     bfa:	86 ff       	sbrs	r24, 6
     bfc:	07 c0       	rjmp	.+14     	; 0xc0c <nvram_write+0x28>
		SetTimerTask(nvram_write, i2c_Retrain);
     bfe:	62 e3       	ldi	r22, 0x32	; 50
     c00:	70 e0       	ldi	r23, 0x00	; 0
     c02:	82 ef       	ldi	r24, 0xF2	; 242
     c04:	95 e0       	ldi	r25, 0x05	; 5
     c06:	0e 94 98 0a 	call	0x1530	; 0x1530 <SetTimerTask>
     c0a:	08 95       	ret
		} else {
		ATOMIC_BLOCK(ATOMIC_RESTORESTATE)
     c0c:	2f b7       	in	r18, 0x3f	; 63
    return 1;
}

static __inline__ uint8_t __iCliRetVal(void)
{
    cli();
     c0e:	f8 94       	cli
		{
			i2c_Do = i2c_sawp | i2c_Busy;
     c10:	84 e4       	ldi	r24, 0x44	; 68
     c12:	80 93 74 02 	sts	0x0274, r24
			i2c_SlaveAddress = RTC_ADDR;
     c16:	80 ed       	ldi	r24, 0xD0	; 208
     c18:	80 93 6b 02 	sts	0x026B, r24
			i2c_index = 0;
			i2c_Buffer[i2c_index++] = 0x08;							// адрес
     c1c:	88 e0       	ldi	r24, 0x08	; 8
     c1e:	80 93 63 02 	sts	0x0263, r24
			i2c_Buffer[i2c_index++] = ((nv_cnt)>>8) & 0xFF;
     c22:	80 91 32 01 	lds	r24, 0x0132
     c26:	90 91 33 01 	lds	r25, 0x0133
     c2a:	90 93 64 02 	sts	0x0264, r25
			i2c_Buffer[i2c_index++] = nv_cnt & 0xFF;
     c2e:	80 93 65 02 	sts	0x0265, r24
			i2c_ByteCount = i2c_index;
     c32:	83 e0       	ldi	r24, 0x03	; 3
     c34:	80 93 71 02 	sts	0x0271, r24
			i2c_index = 0;
     c38:	10 92 62 02 	sts	0x0262, r1

			MasterOutFunc = nvram_write2;
     c3c:	8c e5       	ldi	r24, 0x5C	; 92
     c3e:	96 e0       	ldi	r25, 0x06	; 6
     c40:	90 93 39 01 	sts	0x0139, r25
     c44:	80 93 38 01 	sts	0x0138, r24
			ErrorOutFunc =  nvram_write2;
     c48:	90 93 35 01 	sts	0x0135, r25
     c4c:	80 93 34 01 	sts	0x0134, r24
			
			TWCR = 1<<TWSTA|0<<TWSTO|1<<TWINT|0<<TWEA|1<<TWEN|1<<TWIE;
     c50:	85 ea       	ldi	r24, 0xA5	; 165
     c52:	80 93 bc 00 	sts	0x00BC, r24
    (void)__s;
}

static __inline__ void __iRestore(const  uint8_t *__s)
{
    SREG = *__s;
     c56:	2f bf       	out	0x3f, r18	; 63
    __asm__ volatile ("" ::: "memory");
     c58:	08 95       	ret

00000c5a <nvram_read>:
	sprintf( str1, "%d", nv_cnt);
	d_putstring(str1);
	
}
void nvram_read() {
	if ( (i2c_Do & i2c_Busy) ) {
     c5a:	80 91 74 02 	lds	r24, 0x0274
     c5e:	86 ff       	sbrs	r24, 6
     c60:	07 c0       	rjmp	.+14     	; 0xc70 <nvram_read+0x16>
		SetTimerTask(nvram_read, i2c_Retrain);
     c62:	62 e3       	ldi	r22, 0x32	; 50
     c64:	70 e0       	ldi	r23, 0x00	; 0
     c66:	8d e2       	ldi	r24, 0x2D	; 45
     c68:	96 e0       	ldi	r25, 0x06	; 6
     c6a:	0e 94 98 0a 	call	0x1530	; 0x1530 <SetTimerTask>
     c6e:	08 95       	ret
		} else {
		ATOMIC_BLOCK(ATOMIC_RESTORESTATE)
     c70:	2f b7       	in	r18, 0x3f	; 63
    return 1;
}

static __inline__ uint8_t __iCliRetVal(void)
{
    cli();
     c72:	f8 94       	cli
		{
			i2c_index = 0;
     c74:	10 92 62 02 	sts	0x0262, r1
			i2c_ByteCount = 2;
     c78:	82 e0       	ldi	r24, 0x02	; 2
     c7a:	80 93 71 02 	sts	0x0271, r24
			i2c_SlaveAddress = RTC_ADDR;
     c7e:	80 ed       	ldi	r24, 0xD0	; 208
     c80:	80 93 6b 02 	sts	0x026B, r24
			i2c_PageAddress[0] = 0x08;
     c84:	88 e0       	ldi	r24, 0x08	; 8
     c86:	80 93 6e 02 	sts	0x026E, r24
			i2c_PageAddrIndex = 0;
     c8a:	10 92 70 02 	sts	0x0270, r1
			i2c_PageAddrCount = 1;
     c8e:	81 e0       	ldi	r24, 0x01	; 1
     c90:	80 93 6d 02 	sts	0x026D, r24

			MasterOutFunc = nvram_read2;
     c94:	85 e9       	ldi	r24, 0x95	; 149
     c96:	96 e0       	ldi	r25, 0x06	; 6
     c98:	90 93 39 01 	sts	0x0139, r25
     c9c:	80 93 38 01 	sts	0x0138, r24
			ErrorOutFunc =  nvram_read2;
     ca0:	90 93 35 01 	sts	0x0135, r25
     ca4:	80 93 34 01 	sts	0x0134, r24

			i2c_Do = i2c_sawsarp | i2c_Busy;
     ca8:	88 e4       	ldi	r24, 0x48	; 72
     caa:	80 93 74 02 	sts	0x0274, r24
			TWCR = 1<<TWSTA|0<<TWSTO|1<<TWINT|0<<TWEA|1<<TWEN|1<<TWIE;
     cae:	85 ea       	ldi	r24, 0xA5	; 165
     cb0:	80 93 bc 00 	sts	0x00BC, r24
    (void)__s;
}

static __inline__ void __iRestore(const  uint8_t *__s)
{
    SREG = *__s;
     cb4:	2f bf       	out	0x3f, r18	; 63
    __asm__ volatile ("" ::: "memory");
     cb6:	08 95       	ret

00000cb8 <nvram_write2>:


static uint16_t	nv_cnt = 1;

void nvram_write2(){
	i2c_Do &= i2c_Free;											// Освобождаем шину
     cb8:	80 91 74 02 	lds	r24, 0x0274
     cbc:	8f 7b       	andi	r24, 0xBF	; 191
     cbe:	80 93 74 02 	sts	0x0274, r24
	d_setcursor(7,1);
     cc2:	61 e0       	ldi	r22, 0x01	; 1
     cc4:	87 e0       	ldi	r24, 0x07	; 7
     cc6:	0e 94 b5 04 	call	0x96a	; 0x96a <d_setcursor>
	if(i2c_Do & (i2c_ERR_NA|i2c_ERR_BF)) {
     cca:	80 91 74 02 	lds	r24, 0x0274
     cce:	81 71       	andi	r24, 0x11	; 17
     cd0:	89 f0       	breq	.+34     	; 0xcf4 <nvram_write2+0x3c>
		d_setcursor(7,1);
     cd2:	61 e0       	ldi	r22, 0x01	; 1
     cd4:	87 e0       	ldi	r24, 0x07	; 7
     cd6:	0e 94 b5 04 	call	0x96a	; 0x96a <d_setcursor>
		sprintf( str1, "E ");
     cda:	85 e4       	ldi	r24, 0x45	; 69
     cdc:	90 e2       	ldi	r25, 0x20	; 32
     cde:	a0 e0       	ldi	r26, 0x00	; 0
     ce0:	80 93 10 01 	sts	0x0110, r24
     ce4:	90 93 11 01 	sts	0x0111, r25
     ce8:	a0 93 12 01 	sts	0x0112, r26
		d_putstring(str1);
     cec:	80 e1       	ldi	r24, 0x10	; 16
     cee:	91 e0       	ldi	r25, 0x01	; 1
     cf0:	0e 94 bf 04 	call	0x97e	; 0x97e <d_putstring>
	}
	sprintf( str1, "%d", nv_cnt);
     cf4:	80 91 33 01 	lds	r24, 0x0133
     cf8:	8f 93       	push	r24
     cfa:	80 91 32 01 	lds	r24, 0x0132
     cfe:	8f 93       	push	r24
     d00:	8a e3       	ldi	r24, 0x3A	; 58
     d02:	91 e0       	ldi	r25, 0x01	; 1
     d04:	9f 93       	push	r25
     d06:	8f 93       	push	r24
     d08:	80 e1       	ldi	r24, 0x10	; 16
     d0a:	91 e0       	ldi	r25, 0x01	; 1
     d0c:	9f 93       	push	r25
     d0e:	8f 93       	push	r24
     d10:	0e 94 25 0d 	call	0x1a4a	; 0x1a4a <sprintf>
	d_putstring(str1);
     d14:	80 e1       	ldi	r24, 0x10	; 16
     d16:	91 e0       	ldi	r25, 0x01	; 1
     d18:	0e 94 bf 04 	call	0x97e	; 0x97e <d_putstring>
     d1c:	0f 90       	pop	r0
     d1e:	0f 90       	pop	r0
     d20:	0f 90       	pop	r0
     d22:	0f 90       	pop	r0
     d24:	0f 90       	pop	r0
     d26:	0f 90       	pop	r0
     d28:	08 95       	ret

00000d2a <nvram_read2>:
	
}

void nvram_read2(){
	
	nv_cnt = (i2c_Buffer[0]<<8) | i2c_Buffer[1];
     d2a:	80 91 63 02 	lds	r24, 0x0263
     d2e:	90 e0       	ldi	r25, 0x00	; 0
     d30:	98 2f       	mov	r25, r24
     d32:	88 27       	eor	r24, r24
     d34:	20 91 64 02 	lds	r18, 0x0264
     d38:	82 2b       	or	r24, r18
     d3a:	90 93 33 01 	sts	0x0133, r25
     d3e:	80 93 32 01 	sts	0x0132, r24
	i2c_Do &= i2c_Free;											// Освобождаем шину
     d42:	80 91 74 02 	lds	r24, 0x0274
     d46:	8f 7b       	andi	r24, 0xBF	; 191
     d48:	80 93 74 02 	sts	0x0274, r24
	d_setcursor(7,1);
     d4c:	61 e0       	ldi	r22, 0x01	; 1
     d4e:	87 e0       	ldi	r24, 0x07	; 7
     d50:	0e 94 b5 04 	call	0x96a	; 0x96a <d_setcursor>
	if(i2c_Do & (i2c_ERR_NA|i2c_ERR_BF)) {
     d54:	80 91 74 02 	lds	r24, 0x0274
     d58:	81 71       	andi	r24, 0x11	; 17
     d5a:	89 f0       	breq	.+34     	; 0xd7e <nvram_read2+0x54>
		d_setcursor(7,1);
     d5c:	61 e0       	ldi	r22, 0x01	; 1
     d5e:	87 e0       	ldi	r24, 0x07	; 7
     d60:	0e 94 b5 04 	call	0x96a	; 0x96a <d_setcursor>
		sprintf( str1, "E ");
     d64:	85 e4       	ldi	r24, 0x45	; 69
     d66:	90 e2       	ldi	r25, 0x20	; 32
     d68:	a0 e0       	ldi	r26, 0x00	; 0
     d6a:	80 93 10 01 	sts	0x0110, r24
     d6e:	90 93 11 01 	sts	0x0111, r25
     d72:	a0 93 12 01 	sts	0x0112, r26
		d_putstring(str1);
     d76:	80 e1       	ldi	r24, 0x10	; 16
     d78:	91 e0       	ldi	r25, 0x01	; 1
     d7a:	0e 94 bf 04 	call	0x97e	; 0x97e <d_putstring>
	}
	sprintf( str1, "%d", nv_cnt);
     d7e:	80 91 33 01 	lds	r24, 0x0133
     d82:	8f 93       	push	r24
     d84:	80 91 32 01 	lds	r24, 0x0132
     d88:	8f 93       	push	r24
     d8a:	8a e3       	ldi	r24, 0x3A	; 58
     d8c:	91 e0       	ldi	r25, 0x01	; 1
     d8e:	9f 93       	push	r25
     d90:	8f 93       	push	r24
     d92:	80 e1       	ldi	r24, 0x10	; 16
     d94:	91 e0       	ldi	r25, 0x01	; 1
     d96:	9f 93       	push	r25
     d98:	8f 93       	push	r24
     d9a:	0e 94 25 0d 	call	0x1a4a	; 0x1a4a <sprintf>
	d_putstring(str1);
     d9e:	80 e1       	ldi	r24, 0x10	; 16
     da0:	91 e0       	ldi	r25, 0x01	; 1
     da2:	0e 94 bf 04 	call	0x97e	; 0x97e <d_putstring>
     da6:	0f 90       	pop	r0
     da8:	0f 90       	pop	r0
     daa:	0f 90       	pop	r0
     dac:	0f 90       	pop	r0
     dae:	0f 90       	pop	r0
     db0:	0f 90       	pop	r0
     db2:	08 95       	ret

00000db4 <check_answer>:
	SetTimerTask(new_req, 1000);

}

void check_answer(){
	if (noanswer_fl) {
     db4:	80 91 59 01 	lds	r24, 0x0159
     db8:	88 23       	and	r24, r24
     dba:	41 f0       	breq	.+16     	; 0xdcc <check_answer+0x18>
		d_setcursor(0,0);
     dbc:	60 e0       	ldi	r22, 0x00	; 0
     dbe:	80 e0       	ldi	r24, 0x00	; 0
     dc0:	0e 94 b5 04 	call	0x96a	; 0x96a <d_setcursor>
		d_putstringP(PSTR("no answer\0"));
     dc4:	82 e7       	ldi	r24, 0x72	; 114
     dc6:	92 e0       	ldi	r25, 0x02	; 2
     dc8:	0e 94 dd 04 	call	0x9ba	; 0x9ba <d_putstringP>
	}
	SetTimerTask(new_req, 1000);
     dcc:	68 ee       	ldi	r22, 0xE8	; 232
     dce:	73 e0       	ldi	r23, 0x03	; 3
     dd0:	8d ee       	ldi	r24, 0xED	; 237
     dd2:	96 e0       	ldi	r25, 0x06	; 6
     dd4:	0e 94 98 0a 	call	0x1530	; 0x1530 <SetTimerTask>
     dd8:	08 95       	ret

00000dda <new_req>:
}

void new_req(){

	SetTimerTask(check_answer,100);
     dda:	64 e6       	ldi	r22, 0x64	; 100
     ddc:	70 e0       	ldi	r23, 0x00	; 0
     dde:	8a ed       	ldi	r24, 0xDA	; 218
     de0:	96 e0       	ldi	r25, 0x06	; 6
     de2:	0e 94 98 0a 	call	0x1530	; 0x1530 <SetTimerTask>
	noanswer_fl = 1;
     de6:	81 e0       	ldi	r24, 0x01	; 1
     de8:	80 93 59 01 	sts	0x0159, r24
	
	scanner_mk_req(CMD_COMMON_INFO, NULL, 0);
     dec:	40 e0       	ldi	r20, 0x00	; 0
     dee:	50 e0       	ldi	r21, 0x00	; 0
     df0:	60 e0       	ldi	r22, 0x00	; 0
     df2:	70 e0       	ldi	r23, 0x00	; 0
     df4:	80 e0       	ldi	r24, 0x00	; 0
     df6:	0e 94 3e 02 	call	0x47c	; 0x47c <scanner_mk_req>
     dfa:	08 95       	ret

00000dfc <new_packet>:
//=====================================================================
void init_wood_system(){
	eeprom_read_block( (void*)gates, (const void*)eeGates,sizeof(eeGates));
}

void new_packet(){
     dfc:	cf 93       	push	r28
     dfe:	df 93       	push	r29
	o22_header_t *header = (o22_header_t*)rx_buff;
	o22_common_t *cmn = (o22_common_t*)&rx_buff[4];
	u16 crc, crc_buff;

	noanswer_fl = 0;
     e00:	10 92 59 01 	sts	0x0159, r1
	
	d_command(0x01);
     e04:	81 e0       	ldi	r24, 0x01	; 1
     e06:	0e 94 9b 04 	call	0x936	; 0x936 <d_command>
	
	crc = crc16(rx_buff, header->packet_size);
     e0a:	c7 ec       	ldi	r28, 0xC7	; 199
     e0c:	d1 e0       	ldi	r29, 0x01	; 1
     e0e:	68 81       	ld	r22, Y
     e10:	86 ec       	ldi	r24, 0xC6	; 198
     e12:	91 e0       	ldi	r25, 0x01	; 1
     e14:	0e 94 14 02 	call	0x428	; 0x428 <crc16>
	crc_buff = rx_buff[header->packet_size] <<8 | rx_buff[header->packet_size+1];
     e18:	e8 81       	ld	r30, Y
     e1a:	f0 e0       	ldi	r31, 0x00	; 0
     e1c:	ea 53       	subi	r30, 0x3A	; 58
     e1e:	fe 4f       	sbci	r31, 0xFE	; 254
     e20:	21 81       	ldd	r18, Z+1	; 0x01
     e22:	40 81       	ld	r20, Z
     e24:	30 e0       	ldi	r19, 0x00	; 0
     e26:	34 2b       	or	r19, r20
	if (crc == crc_buff) {
     e28:	82 17       	cp	r24, r18
     e2a:	93 07       	cpc	r25, r19
     e2c:	09 f0       	breq	.+2      	; 0xe30 <new_packet+0x34>
     e2e:	4f c0       	rjmp	.+158    	; 0xece <new_packet+0xd2>
		
		current_dmts = cmn->cur_dmts;
     e30:	80 91 f4 01 	lds	r24, 0x01F4
     e34:	90 91 f5 01 	lds	r25, 0x01F5
     e38:	90 93 5b 01 	sts	0x015B, r25
     e3c:	80 93 5a 01 	sts	0x015A, r24
		
		sprintf(str0,"%d %ud",cmn->last.index, current_dmts);
     e40:	80 91 5a 01 	lds	r24, 0x015A
     e44:	90 91 5b 01 	lds	r25, 0x015B
     e48:	9f 93       	push	r25
     e4a:	8f 93       	push	r24
     e4c:	ec ec       	ldi	r30, 0xCC	; 204
     e4e:	f1 e0       	ldi	r31, 0x01	; 1
     e50:	81 81       	ldd	r24, Z+1	; 0x01
     e52:	8f 93       	push	r24
     e54:	80 81       	ld	r24, Z
     e56:	8f 93       	push	r24
     e58:	8d e3       	ldi	r24, 0x3D	; 61
     e5a:	91 e0       	ldi	r25, 0x01	; 1
     e5c:	9f 93       	push	r25
     e5e:	8f 93       	push	r24
     e60:	81 e2       	ldi	r24, 0x21	; 33
     e62:	91 e0       	ldi	r25, 0x01	; 1
     e64:	9f 93       	push	r25
     e66:	8f 93       	push	r24
     e68:	0e 94 25 0d 	call	0x1a4a	; 0x1a4a <sprintf>
		d_putstring(str0);
     e6c:	81 e2       	ldi	r24, 0x21	; 33
     e6e:	91 e0       	ldi	r25, 0x01	; 1
     e70:	0e 94 bf 04 	call	0x97e	; 0x97e <d_putstring>

		sprintf(str1,"%3d %3d %3d",cmn->last.d1, cmn->last.d2, cmn->last.d3);
     e74:	e6 ed       	ldi	r30, 0xD6	; 214
     e76:	f1 e0       	ldi	r31, 0x01	; 1
     e78:	81 81       	ldd	r24, Z+1	; 0x01
     e7a:	8f 93       	push	r24
     e7c:	80 81       	ld	r24, Z
     e7e:	8f 93       	push	r24
     e80:	e4 ed       	ldi	r30, 0xD4	; 212
     e82:	f1 e0       	ldi	r31, 0x01	; 1
     e84:	81 81       	ldd	r24, Z+1	; 0x01
     e86:	8f 93       	push	r24
     e88:	80 81       	ld	r24, Z
     e8a:	8f 93       	push	r24
     e8c:	e2 ed       	ldi	r30, 0xD2	; 210
     e8e:	f1 e0       	ldi	r31, 0x01	; 1
     e90:	81 81       	ldd	r24, Z+1	; 0x01
     e92:	8f 93       	push	r24
     e94:	80 81       	ld	r24, Z
     e96:	8f 93       	push	r24
     e98:	84 e4       	ldi	r24, 0x44	; 68
     e9a:	91 e0       	ldi	r25, 0x01	; 1
     e9c:	9f 93       	push	r25
     e9e:	8f 93       	push	r24
     ea0:	80 e1       	ldi	r24, 0x10	; 16
     ea2:	91 e0       	ldi	r25, 0x01	; 1
     ea4:	9f 93       	push	r25
     ea6:	8f 93       	push	r24
     ea8:	0e 94 25 0d 	call	0x1a4a	; 0x1a4a <sprintf>
		d_setcursor( 0, 1);
     eac:	61 e0       	ldi	r22, 0x01	; 1
     eae:	80 e0       	ldi	r24, 0x00	; 0
     eb0:	0e 94 b5 04 	call	0x96a	; 0x96a <d_setcursor>
		d_putstring(str1);
     eb4:	80 e1       	ldi	r24, 0x10	; 16
     eb6:	91 e0       	ldi	r25, 0x01	; 1
     eb8:	0e 94 bf 04 	call	0x97e	; 0x97e <d_putstring>
     ebc:	8d b7       	in	r24, 0x3d	; 61
     ebe:	9e b7       	in	r25, 0x3e	; 62
     ec0:	42 96       	adiw	r24, 0x12	; 18
     ec2:	0f b6       	in	r0, 0x3f	; 63
     ec4:	f8 94       	cli
     ec6:	9e bf       	out	0x3e, r25	; 62
     ec8:	0f be       	out	0x3f, r0	; 63
     eca:	8d bf       	out	0x3d, r24	; 61
     ecc:	04 c0       	rjmp	.+8      	; 0xed6 <new_packet+0xda>
		} else {
		d_putstringP(PSTR("CRC error\0"));
     ece:	8d e7       	ldi	r24, 0x7D	; 125
     ed0:	92 e0       	ldi	r25, 0x02	; 2
     ed2:	0e 94 dd 04 	call	0x9ba	; 0x9ba <d_putstringP>
	}

	SetTimerTask(new_req, 1000);
     ed6:	68 ee       	ldi	r22, 0xE8	; 232
     ed8:	73 e0       	ldi	r23, 0x03	; 3
     eda:	8d ee       	ldi	r24, 0xED	; 237
     edc:	96 e0       	ldi	r25, 0x06	; 6
     ede:	0e 94 98 0a 	call	0x1530	; 0x1530 <SetTimerTask>

}
     ee2:	df 91       	pop	r29
     ee4:	cf 91       	pop	r28
     ee6:	08 95       	ret

00000ee8 <main>:
#include "scaner.h"
#include "menu.h"

int main(void)
{
	wdt_enable(WDTO_4S);
     ee8:	28 e2       	ldi	r18, 0x28	; 40
     eea:	88 e1       	ldi	r24, 0x18	; 24
     eec:	90 e0       	ldi	r25, 0x00	; 0
     eee:	0f b6       	in	r0, 0x3f	; 63
     ef0:	f8 94       	cli
     ef2:	a8 95       	wdr
     ef4:	80 93 60 00 	sts	0x0060, r24
     ef8:	0f be       	out	0x3f, r0	; 63
     efa:	20 93 60 00 	sts	0x0060, r18
	
	InitAll();
     efe:	0e 94 a4 0b 	call	0x1748	; 0x1748 <InitAll>
	Init_i2c();
     f02:	0e 94 41 0a 	call	0x1482	; 0x1482 <Init_i2c>
	uart_init();
     f06:	0e 94 63 01 	call	0x2c6	; 0x2c6 <uart_init>
	d_init();		// инициализация буферов дисплея
     f0a:	0e 94 92 04 	call	0x924	; 0x924 <d_init>

	initMessages();
     f0e:	0e 94 ec 0c 	call	0x19d8	; 0x19d8 <initMessages>
	InitRTOS();
     f12:	0e 94 4e 0a 	call	0x149c	; 0x149c <InitRTOS>
	
	RunRTOS();		// разрешает прерывания
     f16:	0e 94 92 0b 	call	0x1724	; 0x1724 <RunRTOS>

	d_start();		// включение и очистка экрана
     f1a:	0e 94 fb 04 	call	0x9f6	; 0x9f6 <d_start>
	kbd_init();		// единички в регистр (чтобы было, что притягивать к 0), разрешаем INT0
     f1e:	0e 94 b8 02 	call	0x570	; 0x570 <kbd_init>
	
	SetTimerTask(new_req,100);
     f22:	64 e6       	ldi	r22, 0x64	; 100
     f24:	70 e0       	ldi	r23, 0x00	; 0
     f26:	8d ee       	ldi	r24, 0xED	; 237
     f28:	96 e0       	ldi	r25, 0x06	; 6
     f2a:	0e 94 98 0a 	call	0x1530	; 0x1530 <SetTimerTask>

	setHandler(MSG_MENU_SELECT, &selectMenu);
     f2e:	67 e6       	ldi	r22, 0x67	; 103
     f30:	75 e0       	ldi	r23, 0x05	; 5
     f32:	85 e0       	ldi	r24, 0x05	; 5
     f34:	0e 94 1c 0c 	call	0x1838	; 0x1838 <setHandler>
	startMenu(0);
     f38:	80 e0       	ldi	r24, 0x00	; 0
     f3a:	90 e0       	ldi	r25, 0x00	; 0
     f3c:	0e 94 d9 05 	call	0xbb2	; 0xbb2 <startMenu>
	
	while(1)
	{
		wdt_reset();
     f40:	a8 95       	wdr
//		dispatchMessage();		// вызывает (не шедулет!!!) обработчики с параметром
		TaskManager();			// выполняет таски зашедуленные "просто" и через "time-сервис"
     f42:	0e 94 fd 0a 	call	0x15fa	; 0x15fa <TaskManager>
     f46:	fc cf       	rjmp	.-8      	; 0xf40 <main+0x58>

00000f48 <circ_init>:
//    .length = sizeof(u_txbuff),
//  },
// затем вызывается circ_init
//
void circ_init(struct circ_buffer *buff)
{
     f48:	fc 01       	movw	r30, r24
	buff->pointer = buff->start;
     f4a:	80 81       	ld	r24, Z
     f4c:	91 81       	ldd	r25, Z+1	; 0x01
     f4e:	95 83       	std	Z+5, r25	; 0x05
     f50:	84 83       	std	Z+4, r24	; 0x04
	buff->datalen = 0;
     f52:	17 82       	std	Z+7, r1	; 0x07
     f54:	16 82       	std	Z+6, r1	; 0x06
     f56:	08 95       	ret

00000f58 <circ_push>:
}

int circ_push(struct circ_buffer *buff, uint8_t *data, int len)
{
     f58:	ef 92       	push	r14
     f5a:	ff 92       	push	r15
     f5c:	0f 93       	push	r16
     f5e:	1f 93       	push	r17
     f60:	cf 93       	push	r28
     f62:	df 93       	push	r29
     f64:	fc 01       	movw	r30, r24
     f66:	eb 01       	movw	r28, r22
     f68:	9a 01       	movw	r18, r20
	uint8_t *bend = buff->start + buff->length - 1;
     f6a:	e0 80       	ld	r14, Z
     f6c:	f1 80       	ldd	r15, Z+1	; 0x01
     f6e:	62 81       	ldd	r22, Z+2	; 0x02
     f70:	73 81       	ldd	r23, Z+3	; 0x03
     f72:	8b 01       	movw	r16, r22
     f74:	01 50       	subi	r16, 0x01	; 1
     f76:	11 09       	sbc	r17, r1
     f78:	0e 0d       	add	r16, r14
     f7a:	1f 1d       	adc	r17, r15
	uint8_t *dend = (buff->pointer - buff->start + buff->datalen) % buff->length + buff->start; /* This points to new byte */
     f7c:	46 81       	ldd	r20, Z+6	; 0x06
     f7e:	57 81       	ldd	r21, Z+7	; 0x07
     f80:	84 81       	ldd	r24, Z+4	; 0x04
     f82:	95 81       	ldd	r25, Z+5	; 0x05
     f84:	8e 19       	sub	r24, r14
     f86:	9f 09       	sbc	r25, r15
     f88:	84 0f       	add	r24, r20
     f8a:	95 1f       	adc	r25, r21
     f8c:	0e 94 f7 0c 	call	0x19ee	; 0x19ee <__divmodhi4>
     f90:	d7 01       	movw	r26, r14
     f92:	a8 0f       	add	r26, r24
     f94:	b9 1f       	adc	r27, r25

	for (; len > 0; len--) {
     f96:	12 16       	cp	r1, r18
     f98:	13 06       	cpc	r1, r19
     f9a:	d4 f4       	brge	.+52     	; 0xfd0 <circ_push+0x78>
		if (dend > bend) dend = buff->start;
     f9c:	0a 17       	cp	r16, r26
     f9e:	1b 07       	cpc	r17, r27
     fa0:	10 f4       	brcc	.+4      	; 0xfa6 <circ_push+0x4e>
     fa2:	a0 81       	ld	r26, Z
     fa4:	b1 81       	ldd	r27, Z+1	; 0x01
		if (buff->datalen != 0 && dend == buff->pointer) break;
     fa6:	86 81       	ldd	r24, Z+6	; 0x06
     fa8:	97 81       	ldd	r25, Z+7	; 0x07
     faa:	89 2b       	or	r24, r25
     fac:	29 f0       	breq	.+10     	; 0xfb8 <circ_push+0x60>
     fae:	84 81       	ldd	r24, Z+4	; 0x04
     fb0:	95 81       	ldd	r25, Z+5	; 0x05
     fb2:	8a 17       	cp	r24, r26
     fb4:	9b 07       	cpc	r25, r27
     fb6:	61 f0       	breq	.+24     	; 0xfd0 <circ_push+0x78>
		*dend = *data;
     fb8:	89 91       	ld	r24, Y+
     fba:	8d 93       	st	X+, r24
		dend++;
		data++;
		buff->datalen++;
     fbc:	86 81       	ldd	r24, Z+6	; 0x06
     fbe:	97 81       	ldd	r25, Z+7	; 0x07
     fc0:	01 96       	adiw	r24, 0x01	; 1
     fc2:	97 83       	std	Z+7, r25	; 0x07
     fc4:	86 83       	std	Z+6, r24	; 0x06
int circ_push(struct circ_buffer *buff, uint8_t *data, int len)
{
	uint8_t *bend = buff->start + buff->length - 1;
	uint8_t *dend = (buff->pointer - buff->start + buff->datalen) % buff->length + buff->start; /* This points to new byte */

	for (; len > 0; len--) {
     fc6:	21 50       	subi	r18, 0x01	; 1
     fc8:	31 09       	sbc	r19, r1
     fca:	21 15       	cp	r18, r1
     fcc:	31 05       	cpc	r19, r1
     fce:	31 f7       	brne	.-52     	; 0xf9c <circ_push+0x44>
		data++;
		buff->datalen++;
	}

	return len; /* Return amount of bytes left */
}
     fd0:	c9 01       	movw	r24, r18
     fd2:	df 91       	pop	r29
     fd4:	cf 91       	pop	r28
     fd6:	1f 91       	pop	r17
     fd8:	0f 91       	pop	r16
     fda:	ff 90       	pop	r15
     fdc:	ef 90       	pop	r14
     fde:	08 95       	ret

00000fe0 <circ_push_byte>:

int circ_push_byte(struct circ_buffer *buff, uint8_t data)
{
     fe0:	0f 93       	push	r16
     fe2:	1f 93       	push	r17
     fe4:	cf 93       	push	r28
     fe6:	df 93       	push	r29
     fe8:	fc 01       	movw	r30, r24
     fea:	46 2f       	mov	r20, r22
	uint8_t *bend = buff->start + buff->length - 1;
     fec:	c0 81       	ld	r28, Z
     fee:	d1 81       	ldd	r29, Z+1	; 0x01
     ff0:	22 81       	ldd	r18, Z+2	; 0x02
     ff2:	33 81       	ldd	r19, Z+3	; 0x03
	uint8_t *dend = (buff->pointer - buff->start + buff->datalen) % buff->length + buff->start; /* This points to new byte */
     ff4:	04 81       	ldd	r16, Z+4	; 0x04
     ff6:	15 81       	ldd	r17, Z+5	; 0x05
     ff8:	86 81       	ldd	r24, Z+6	; 0x06
     ffa:	97 81       	ldd	r25, Z+7	; 0x07
     ffc:	b8 01       	movw	r22, r16
     ffe:	6c 1b       	sub	r22, r28
    1000:	7d 0b       	sbc	r23, r29
    1002:	86 0f       	add	r24, r22
    1004:	97 1f       	adc	r25, r23
    1006:	b9 01       	movw	r22, r18
    1008:	0e 94 f7 0c 	call	0x19ee	; 0x19ee <__divmodhi4>
    100c:	8c 0f       	add	r24, r28
    100e:	9d 1f       	adc	r25, r29
	return len; /* Return amount of bytes left */
}

int circ_push_byte(struct circ_buffer *buff, uint8_t data)
{
	uint8_t *bend = buff->start + buff->length - 1;
    1010:	21 50       	subi	r18, 0x01	; 1
    1012:	31 09       	sbc	r19, r1
    1014:	2c 0f       	add	r18, r28
    1016:	3d 1f       	adc	r19, r29
	uint8_t *dend = (buff->pointer - buff->start + buff->datalen) % buff->length + buff->start; /* This points to new byte */

	if (dend > bend) dend = buff->start;
    1018:	28 17       	cp	r18, r24
    101a:	39 07       	cpc	r19, r25
    101c:	08 f0       	brcs	.+2      	; 0x1020 <circ_push_byte+0x40>
}

int circ_push_byte(struct circ_buffer *buff, uint8_t data)
{
	uint8_t *bend = buff->start + buff->length - 1;
	uint8_t *dend = (buff->pointer - buff->start + buff->datalen) % buff->length + buff->start; /* This points to new byte */
    101e:	ec 01       	movw	r28, r24

	if (dend > bend) dend = buff->start;
	if (buff->datalen != 0 && dend == buff->pointer) return 1;
    1020:	86 81       	ldd	r24, Z+6	; 0x06
    1022:	97 81       	ldd	r25, Z+7	; 0x07
    1024:	89 2b       	or	r24, r25
    1026:	19 f0       	breq	.+6      	; 0x102e <circ_push_byte+0x4e>
    1028:	c0 17       	cp	r28, r16
    102a:	d1 07       	cpc	r29, r17
    102c:	49 f0       	breq	.+18     	; 0x1040 <circ_push_byte+0x60>
	*dend = data;
    102e:	48 83       	st	Y, r20
	buff->datalen++;
    1030:	86 81       	ldd	r24, Z+6	; 0x06
    1032:	97 81       	ldd	r25, Z+7	; 0x07
    1034:	01 96       	adiw	r24, 0x01	; 1
    1036:	97 83       	std	Z+7, r25	; 0x07
    1038:	86 83       	std	Z+6, r24	; 0x06

	return 0; /* Return amount of bytes left */
    103a:	80 e0       	ldi	r24, 0x00	; 0
    103c:	90 e0       	ldi	r25, 0x00	; 0
    103e:	02 c0       	rjmp	.+4      	; 0x1044 <circ_push_byte+0x64>
{
	uint8_t *bend = buff->start + buff->length - 1;
	uint8_t *dend = (buff->pointer - buff->start + buff->datalen) % buff->length + buff->start; /* This points to new byte */

	if (dend > bend) dend = buff->start;
	if (buff->datalen != 0 && dend == buff->pointer) return 1;
    1040:	81 e0       	ldi	r24, 0x01	; 1
    1042:	90 e0       	ldi	r25, 0x00	; 0
	*dend = data;
	buff->datalen++;

	return 0; /* Return amount of bytes left */
}
    1044:	df 91       	pop	r29
    1046:	cf 91       	pop	r28
    1048:	1f 91       	pop	r17
    104a:	0f 91       	pop	r16
    104c:	08 95       	ret

0000104e <circ_pop>:

	return i; /* Return the amount of bytes actually peeked */
}

int circ_pop(struct circ_buffer *buff, uint8_t *data, int len)
{
    104e:	0f 93       	push	r16
    1050:	1f 93       	push	r17
    1052:	cf 93       	push	r28
    1054:	df 93       	push	r29
    1056:	fc 01       	movw	r30, r24
	uint8_t *bend = buff->start + buff->length - 1;
    1058:	02 81       	ldd	r16, Z+2	; 0x02
    105a:	13 81       	ldd	r17, Z+3	; 0x03
    105c:	01 50       	subi	r16, 0x01	; 1
    105e:	11 09       	sbc	r17, r1
    1060:	80 81       	ld	r24, Z
    1062:	91 81       	ldd	r25, Z+1	; 0x01
    1064:	08 0f       	add	r16, r24
    1066:	19 1f       	adc	r17, r25
	int i;

	for (i = 0; i < len && buff->datalen > 0; i++) {
    1068:	14 16       	cp	r1, r20
    106a:	15 06       	cpc	r1, r21
    106c:	54 f5       	brge	.+84     	; 0x10c2 <circ_pop+0x74>
    106e:	86 81       	ldd	r24, Z+6	; 0x06
    1070:	97 81       	ldd	r25, Z+7	; 0x07
    1072:	18 16       	cp	r1, r24
    1074:	19 06       	cpc	r1, r25
    1076:	44 f5       	brge	.+80     	; 0x10c8 <circ_pop+0x7a>
    1078:	a6 2f       	mov	r26, r22
    107a:	b7 2f       	mov	r27, r23
    107c:	80 e0       	ldi	r24, 0x00	; 0
    107e:	90 e0       	ldi	r25, 0x00	; 0
		data[i] = *buff->pointer;
    1080:	c4 81       	ldd	r28, Z+4	; 0x04
    1082:	d5 81       	ldd	r29, Z+5	; 0x05
    1084:	28 81       	ld	r18, Y
    1086:	2d 93       	st	X+, r18
		buff->pointer++;
    1088:	24 81       	ldd	r18, Z+4	; 0x04
    108a:	35 81       	ldd	r19, Z+5	; 0x05
    108c:	2f 5f       	subi	r18, 0xFF	; 255
    108e:	3f 4f       	sbci	r19, 0xFF	; 255
    1090:	35 83       	std	Z+5, r19	; 0x05
    1092:	24 83       	std	Z+4, r18	; 0x04
		buff->datalen--;
    1094:	66 81       	ldd	r22, Z+6	; 0x06
    1096:	77 81       	ldd	r23, Z+7	; 0x07
    1098:	61 50       	subi	r22, 0x01	; 1
    109a:	71 09       	sbc	r23, r1
    109c:	77 83       	std	Z+7, r23	; 0x07
    109e:	66 83       	std	Z+6, r22	; 0x06
		if (buff->pointer > bend) buff->pointer = buff->start;
    10a0:	02 17       	cp	r16, r18
    10a2:	13 07       	cpc	r17, r19
    10a4:	20 f4       	brcc	.+8      	; 0x10ae <circ_pop+0x60>
    10a6:	20 81       	ld	r18, Z
    10a8:	31 81       	ldd	r19, Z+1	; 0x01
    10aa:	35 83       	std	Z+5, r19	; 0x05
    10ac:	24 83       	std	Z+4, r18	; 0x04
int circ_pop(struct circ_buffer *buff, uint8_t *data, int len)
{
	uint8_t *bend = buff->start + buff->length - 1;
	int i;

	for (i = 0; i < len && buff->datalen > 0; i++) {
    10ae:	01 96       	adiw	r24, 0x01	; 1
    10b0:	84 17       	cp	r24, r20
    10b2:	95 07       	cpc	r25, r21
    10b4:	59 f0       	breq	.+22     	; 0x10cc <circ_pop+0x7e>
    10b6:	26 81       	ldd	r18, Z+6	; 0x06
    10b8:	37 81       	ldd	r19, Z+7	; 0x07
    10ba:	12 16       	cp	r1, r18
    10bc:	13 06       	cpc	r1, r19
    10be:	04 f3       	brlt	.-64     	; 0x1080 <circ_pop+0x32>
    10c0:	05 c0       	rjmp	.+10     	; 0x10cc <circ_pop+0x7e>
    10c2:	80 e0       	ldi	r24, 0x00	; 0
    10c4:	90 e0       	ldi	r25, 0x00	; 0
    10c6:	02 c0       	rjmp	.+4      	; 0x10cc <circ_pop+0x7e>
    10c8:	80 e0       	ldi	r24, 0x00	; 0
    10ca:	90 e0       	ldi	r25, 0x00	; 0
		buff->datalen--;
		if (buff->pointer > bend) buff->pointer = buff->start;
	}

	return i; /* Return the amount of bytes actually popped */
}
    10cc:	df 91       	pop	r29
    10ce:	cf 91       	pop	r28
    10d0:	1f 91       	pop	r17
    10d2:	0f 91       	pop	r16
    10d4:	08 95       	ret

000010d6 <DoNothing>:
	default:	break;
	}
}

void DoNothing(void)																// Функция пустышка, затыкать несуществующие ссылки
{
    10d6:	08 95       	ret

000010d8 <__vector_24>:
u08 	WorkLog[100];						// Лог пишем сюда
u08		WorkIndex=0;						// Индекс лога
*/

ISR(TWI_vect)								// Прерывание TWI Тут наше все.
{
    10d8:	1f 92       	push	r1
    10da:	0f 92       	push	r0
    10dc:	0f b6       	in	r0, 0x3f	; 63
    10de:	0f 92       	push	r0
    10e0:	11 24       	eor	r1, r1
    10e2:	2f 93       	push	r18
    10e4:	3f 93       	push	r19
    10e6:	4f 93       	push	r20
    10e8:	5f 93       	push	r21
    10ea:	6f 93       	push	r22
    10ec:	7f 93       	push	r23
    10ee:	8f 93       	push	r24
    10f0:	9f 93       	push	r25
    10f2:	af 93       	push	r26
    10f4:	bf 93       	push	r27
    10f6:	ef 93       	push	r30
    10f8:	ff 93       	push	r31
	PORTD &= ~(b<<PORTD6);	_delay_ms(0.01);	PORTD |= (1<<PORTD6);	_delay_ms(0.001); PORTD &= ~(1<<PORTD6);_delay_ms(0.001);	PORTD |= (1<<PORTD6);
}

PORTD |= (1<<PORTD5);
*/
switch(TWSR & 0xF8)						// Отсекаем биты прескалера
    10fa:	80 91 b9 00 	lds	r24, 0x00B9
    10fe:	88 7f       	andi	r24, 0xF8	; 248
    1100:	90 e0       	ldi	r25, 0x00	; 0
    1102:	89 3c       	cpi	r24, 0xC9	; 201
    1104:	91 05       	cpc	r25, r1
    1106:	08 f0       	brcs	.+2      	; 0x110a <__vector_24+0x32>
    1108:	ab c1       	rjmp	.+854    	; 0x1460 <__vector_24+0x388>
    110a:	fc 01       	movw	r30, r24
    110c:	ec 5c       	subi	r30, 0xCC	; 204
    110e:	ff 4f       	sbci	r31, 0xFF	; 255
    1110:	0c 94 0b 0d 	jmp	0x1a16	; 0x1a16 <__tablejump2__>
	{
	case 0x00:	// Bus Fail (автобус сломался)
			{
			i2c_Do |= i2c_ERR_BF;
    1114:	80 91 74 02 	lds	r24, 0x0274
    1118:	81 60       	ori	r24, 0x01	; 1
    111a:	80 93 74 02 	sts	0x0274, r24
			TWCR = 0<<TWSTA|1<<TWSTO|1<<TWINT|i2c_i_am_slave<<TWEA|1<<TWEN|1<<TWIE;  	// Go!
    111e:	85 e9       	ldi	r24, 0x95	; 149
    1120:	80 93 bc 00 	sts	0x00BC, r24
			MACRO_i2c_WhatDo_ErrorOut
    1124:	e0 91 34 01 	lds	r30, 0x0134
    1128:	f0 91 35 01 	lds	r31, 0x0135
    112c:	09 95       	icall
			break;
    112e:	98 c1       	rjmp	.+816    	; 0x1460 <__vector_24+0x388>
			}

	case 0x08:	// Старт был, а затем мы:
			{
			if( (i2c_Do & i2c_type_msk)== i2c_sarp)							// В зависимости от режима
    1130:	80 91 74 02 	lds	r24, 0x0274
    1134:	8c 70       	andi	r24, 0x0C	; 12
    1136:	31 f4       	brne	.+12     	; 0x1144 <__vector_24+0x6c>
				{
				i2c_SlaveAddress |= 0x01;									// Шлем Addr+R
    1138:	80 91 6b 02 	lds	r24, 0x026B
    113c:	81 60       	ori	r24, 0x01	; 1
    113e:	80 93 6b 02 	sts	0x026B, r24
    1142:	05 c0       	rjmp	.+10     	; 0x114e <__vector_24+0x76>
				}
			else															// Или 
				{
				i2c_SlaveAddress &= 0xFE;									// Шлем Addr+W
    1144:	80 91 6b 02 	lds	r24, 0x026B
    1148:	8e 7f       	andi	r24, 0xFE	; 254
    114a:	80 93 6b 02 	sts	0x026B, r24
				}
			
			TWDR = i2c_SlaveAddress;													// Адрес слейва
    114e:	80 91 6b 02 	lds	r24, 0x026B
    1152:	80 93 bb 00 	sts	0x00BB, r24
			TWCR = 0<<TWSTA|0<<TWSTO|1<<TWINT|i2c_i_am_slave<<TWEA|1<<TWEN|1<<TWIE;  	// Go!
    1156:	85 e8       	ldi	r24, 0x85	; 133
    1158:	80 93 bc 00 	sts	0x00BC, r24
			break;
    115c:	81 c1       	rjmp	.+770    	; 0x1460 <__vector_24+0x388>
			}
				
	case 0x10:	// Повторный старт был, а затем мы
			{
			if( (i2c_Do & i2c_type_msk) == i2c_sawsarp)						// В зависимости от режима
    115e:	80 91 74 02 	lds	r24, 0x0274
    1162:	8c 70       	andi	r24, 0x0C	; 12
    1164:	88 30       	cpi	r24, 0x08	; 8
    1166:	31 f4       	brne	.+12     	; 0x1174 <__vector_24+0x9c>
				{
				i2c_SlaveAddress |= 0x01;									// Шлем Addr+R
    1168:	80 91 6b 02 	lds	r24, 0x026B
    116c:	81 60       	ori	r24, 0x01	; 1
    116e:	80 93 6b 02 	sts	0x026B, r24
    1172:	05 c0       	rjmp	.+10     	; 0x117e <__vector_24+0xa6>
				}
			else
				{
				i2c_SlaveAddress &= 0xFE;									// Шлем Addr+W
    1174:	80 91 6b 02 	lds	r24, 0x026B
    1178:	8e 7f       	andi	r24, 0xFE	; 254
    117a:	80 93 6b 02 	sts	0x026B, r24
				}

			// To Do: Добавить сюда обработку ошибок 

			TWDR = i2c_SlaveAddress;													// Адрес слейва
    117e:	80 91 6b 02 	lds	r24, 0x026B
    1182:	80 93 bb 00 	sts	0x00BB, r24
			TWCR = 0<<TWSTA|0<<TWSTO|1<<TWINT|i2c_i_am_slave<<TWEA|1<<TWEN|1<<TWIE;  	// Go!
    1186:	85 e8       	ldi	r24, 0x85	; 133
    1188:	80 93 bc 00 	sts	0x00BC, r24
			break;
    118c:	69 c1       	rjmp	.+722    	; 0x1460 <__vector_24+0x388>
			}

	case 0x18:	// Был послан SLA+W получили ACK, а затем:
			{
			if( (i2c_Do & i2c_type_msk) == i2c_sawp)						// В зависимости от режима
    118e:	80 91 74 02 	lds	r24, 0x0274
    1192:	8c 70       	andi	r24, 0x0C	; 12
    1194:	84 30       	cpi	r24, 0x04	; 4
    1196:	81 f4       	brne	.+32     	; 0x11b8 <__vector_24+0xe0>
				{
				TWDR = i2c_Buffer[i2c_index];								// Шлем байт данных
    1198:	e0 91 62 02 	lds	r30, 0x0262
    119c:	f0 e0       	ldi	r31, 0x00	; 0
    119e:	ed 59       	subi	r30, 0x9D	; 157
    11a0:	fd 4f       	sbci	r31, 0xFD	; 253
    11a2:	80 81       	ld	r24, Z
    11a4:	80 93 bb 00 	sts	0x00BB, r24
				i2c_index++;												// Увеличиваем указатель буфера
    11a8:	80 91 62 02 	lds	r24, 0x0262
    11ac:	8f 5f       	subi	r24, 0xFF	; 255
    11ae:	80 93 62 02 	sts	0x0262, r24
				TWCR = 0<<TWSTA|0<<TWSTO|1<<TWINT|i2c_i_am_slave<<TWEA|1<<TWEN|1<<TWIE;  // Go! 
    11b2:	85 e8       	ldi	r24, 0x85	; 133
    11b4:	80 93 bc 00 	sts	0x00BC, r24

				}

			if( (i2c_Do & i2c_type_msk) == i2c_sawsarp)
    11b8:	80 91 74 02 	lds	r24, 0x0274
    11bc:	8c 70       	andi	r24, 0x0C	; 12
    11be:	88 30       	cpi	r24, 0x08	; 8
    11c0:	09 f0       	breq	.+2      	; 0x11c4 <__vector_24+0xec>
    11c2:	4e c1       	rjmp	.+668    	; 0x1460 <__vector_24+0x388>
				{
				TWDR = i2c_PageAddress[i2c_PageAddrIndex];					// Или шлем адрес странцы (по сути тоже байт данных)
    11c4:	e0 91 70 02 	lds	r30, 0x0270
    11c8:	f0 e0       	ldi	r31, 0x00	; 0
    11ca:	e2 59       	subi	r30, 0x92	; 146
    11cc:	fd 4f       	sbci	r31, 0xFD	; 253
    11ce:	80 81       	ld	r24, Z
    11d0:	80 93 bb 00 	sts	0x00BB, r24
				i2c_PageAddrIndex++;										// Увеличиваем указатель буфера страницы
    11d4:	80 91 70 02 	lds	r24, 0x0270
    11d8:	8f 5f       	subi	r24, 0xFF	; 255
    11da:	80 93 70 02 	sts	0x0270, r24
				TWCR = 0<<TWSTA|0<<TWSTO|1<<TWINT|i2c_i_am_slave<<TWEA|1<<TWEN|1<<TWIE;	// Go!
    11de:	85 e8       	ldi	r24, 0x85	; 133
    11e0:	80 93 bc 00 	sts	0x00BC, r24
    11e4:	3d c1       	rjmp	.+634    	; 0x1460 <__vector_24+0x388>
			}
			break;

	case 0x20:	// Был послан SLA+W получили NACK - слейв либо занят, либо его нет дома.
			{
			i2c_Do |= i2c_ERR_NA;															// Код ошибки
    11e6:	80 91 74 02 	lds	r24, 0x0274
    11ea:	80 61       	ori	r24, 0x10	; 16
    11ec:	80 93 74 02 	sts	0x0274, r24
			TWCR = 0<<TWSTA|1<<TWSTO|1<<TWINT|i2c_i_am_slave<<TWEA|1<<TWEN|1<<TWIE;			// Шлем шине Stop
    11f0:	85 e9       	ldi	r24, 0x95	; 149
    11f2:	80 93 bc 00 	sts	0x00BC, r24

			MACRO_i2c_WhatDo_ErrorOut 														// Обрабатываем событие ошибки;
    11f6:	e0 91 34 01 	lds	r30, 0x0134
    11fa:	f0 91 35 01 	lds	r31, 0x0135
    11fe:	09 95       	icall
			break;
    1200:	2f c1       	rjmp	.+606    	; 0x1460 <__vector_24+0x388>
			}

	case 0x28: 	// Байт данных послали, получили ACK!  (если sawp - это был байт данных. если sawsarp - байт адреса страницы)
			{	// А дальше: 
			if( (i2c_Do & i2c_type_msk) == i2c_sawp)							// В зависимости от режима
    1202:	80 91 74 02 	lds	r24, 0x0274
    1206:	8c 70       	andi	r24, 0x0C	; 12
    1208:	84 30       	cpi	r24, 0x04	; 4
    120a:	e9 f4       	brne	.+58     	; 0x1246 <__vector_24+0x16e>
				{
				if (i2c_index == i2c_ByteCount)												// Если был байт данных последний
    120c:	e0 91 62 02 	lds	r30, 0x0262
    1210:	80 91 71 02 	lds	r24, 0x0271
    1214:	e8 13       	cpse	r30, r24
    1216:	09 c0       	rjmp	.+18     	; 0x122a <__vector_24+0x152>
					{																		
					TWCR = 0<<TWSTA|1<<TWSTO|1<<TWINT|i2c_i_am_slave<<TWEA|1<<TWEN|1<<TWIE;	// Шлем Stop
    1218:	85 e9       	ldi	r24, 0x95	; 149
    121a:	80 93 bc 00 	sts	0x00BC, r24
					
					MACRO_i2c_WhatDo_MasterOut												// И выходим в обработку стопа
    121e:	e0 91 38 01 	lds	r30, 0x0138
    1222:	f0 91 39 01 	lds	r31, 0x0139
    1226:	09 95       	icall
    1228:	0e c0       	rjmp	.+28     	; 0x1246 <__vector_24+0x16e>

					}
				else
					{
					TWDR = i2c_Buffer[i2c_index];												// Либо шлем еще один байт
    122a:	f0 e0       	ldi	r31, 0x00	; 0
    122c:	ed 59       	subi	r30, 0x9D	; 157
    122e:	fd 4f       	sbci	r31, 0xFD	; 253
    1230:	80 81       	ld	r24, Z
    1232:	80 93 bb 00 	sts	0x00BB, r24
					i2c_index++;
    1236:	80 91 62 02 	lds	r24, 0x0262
    123a:	8f 5f       	subi	r24, 0xFF	; 255
    123c:	80 93 62 02 	sts	0x0262, r24
					TWCR = 0<<TWSTA|0<<TWSTO|1<<TWINT|i2c_i_am_slave<<TWEA|1<<TWEN|1<<TWIE;  	// Go!
    1240:	85 e8       	ldi	r24, 0x85	; 133
    1242:	80 93 bc 00 	sts	0x00BC, r24
					}
				}

			if( (i2c_Do & i2c_type_msk) == i2c_sawsarp)						// В другом режиме мы
    1246:	80 91 74 02 	lds	r24, 0x0274
    124a:	8c 70       	andi	r24, 0x0C	; 12
    124c:	88 30       	cpi	r24, 0x08	; 8
    124e:	09 f0       	breq	.+2      	; 0x1252 <__vector_24+0x17a>
    1250:	07 c1       	rjmp	.+526    	; 0x1460 <__vector_24+0x388>
				{
				if(i2c_PageAddrIndex == i2c_PageAddrCount)					// Если последний байт адреса страницы
    1252:	e0 91 70 02 	lds	r30, 0x0270
    1256:	80 91 6d 02 	lds	r24, 0x026D
    125a:	e8 13       	cpse	r30, r24
    125c:	04 c0       	rjmp	.+8      	; 0x1266 <__vector_24+0x18e>
					{
					TWCR = 1<<TWSTA|0<<TWSTO|1<<TWINT|i2c_i_am_slave<<TWEA|1<<TWEN|1<<TWIE;		// Запускаем Повторный старт!
    125e:	85 ea       	ldi	r24, 0xA5	; 165
    1260:	80 93 bc 00 	sts	0x00BC, r24
    1264:	fd c0       	rjmp	.+506    	; 0x1460 <__vector_24+0x388>
					}
				else
					{														// Иначе 
					TWDR = i2c_PageAddress[i2c_PageAddrIndex];				// шлем еще один адрес страницы
    1266:	f0 e0       	ldi	r31, 0x00	; 0
    1268:	e2 59       	subi	r30, 0x92	; 146
    126a:	fd 4f       	sbci	r31, 0xFD	; 253
    126c:	80 81       	ld	r24, Z
    126e:	80 93 bb 00 	sts	0x00BB, r24
					i2c_PageAddrIndex++;									// Увеличиваем индекс счетчика адреса страниц
    1272:	80 91 70 02 	lds	r24, 0x0270
    1276:	8f 5f       	subi	r24, 0xFF	; 255
    1278:	80 93 70 02 	sts	0x0270, r24
					TWCR = 0<<TWSTA|0<<TWSTO|1<<TWINT|i2c_i_am_slave<<TWEA|1<<TWEN|1<<TWIE;		// Go!
    127c:	85 e8       	ldi	r24, 0x85	; 133
    127e:	80 93 bc 00 	sts	0x00BC, r24
    1282:	ee c0       	rjmp	.+476    	; 0x1460 <__vector_24+0x388>
			}
			break;

	case 0x30:	//Байт ушел, но получили NACK причин две. 1я передача оборвана слейвом и так надо. 2я слейв сглючил.
			{
			i2c_Do |= i2c_ERR_NK;				// Запишем статус ошибки. Хотя это не факт, что ошибка. 
    1284:	80 91 74 02 	lds	r24, 0x0274
    1288:	82 60       	ori	r24, 0x02	; 2
    128a:	80 93 74 02 	sts	0x0274, r24

			TWCR = 0<<TWSTA|1<<TWSTO|1<<TWINT|i2c_i_am_slave<<TWEA|1<<TWEN|1<<TWIE;		// Шлем Stop
    128e:	85 e9       	ldi	r24, 0x95	; 149
    1290:	80 93 bc 00 	sts	0x00BC, r24

			MACRO_i2c_WhatDo_MasterOut													// Отрабатываем событие выхода
    1294:	e0 91 38 01 	lds	r30, 0x0138
    1298:	f0 91 39 01 	lds	r31, 0x0139
    129c:	09 95       	icall

			break;
    129e:	e0 c0       	rjmp	.+448    	; 0x1460 <__vector_24+0x388>
			}

	case 0x38:	//  Коллизия на шине. Нашелся кто то поглавней
			{
			i2c_Do |= i2c_ERR_LP;			// Ставим ошибку потери приоритета
    12a0:	80 91 74 02 	lds	r24, 0x0274
    12a4:	80 62       	ori	r24, 0x20	; 32
    12a6:	80 93 74 02 	sts	0x0274, r24

			// Настраиваем индексы заново. 
			i2c_index = 0;
    12aa:	10 92 62 02 	sts	0x0262, r1
			i2c_PageAddrIndex = 0;
    12ae:	10 92 70 02 	sts	0x0270, r1

			TWCR = 1<<TWSTA|0<<TWSTO|1<<TWINT|i2c_i_am_slave<<TWEA|1<<TWEN|1<<TWIE;		// Как только шина будет свободна 
    12b2:	85 ea       	ldi	r24, 0xA5	; 165
    12b4:	80 93 bc 00 	sts	0x00BC, r24
			break;																		// попробуем передать снова.
    12b8:	d3 c0       	rjmp	.+422    	; 0x1460 <__vector_24+0x388>
			}

	case 0x40: // Послали SLA+R получили АСК. А теперь будем получать байты
			{
			if(i2c_index+1 == i2c_ByteCount)								// Если буфер кончится на этом байте, то 
    12ba:	20 91 62 02 	lds	r18, 0x0262
    12be:	30 e0       	ldi	r19, 0x00	; 0
    12c0:	2f 5f       	subi	r18, 0xFF	; 255
    12c2:	3f 4f       	sbci	r19, 0xFF	; 255
    12c4:	80 91 71 02 	lds	r24, 0x0271
    12c8:	90 e0       	ldi	r25, 0x00	; 0
    12ca:	28 17       	cp	r18, r24
    12cc:	39 07       	cpc	r19, r25
    12ce:	21 f4       	brne	.+8      	; 0x12d8 <__vector_24+0x200>
				{
				TWCR = 0<<TWSTA|0<<TWSTO|1<<TWINT|0<<TWEA|1<<TWEN|1<<TWIE;	// Требуем байт, а в ответ потом пошлем NACK(Disconnect)
    12d0:	85 e8       	ldi	r24, 0x85	; 133
    12d2:	80 93 bc 00 	sts	0x00BC, r24
    12d6:	c4 c0       	rjmp	.+392    	; 0x1460 <__vector_24+0x388>
				}															// Что даст понять слейву, что мол хватит гнать. И он отпустит шину
			else
				{
				TWCR = 0<<TWSTA|0<<TWSTO|1<<TWINT|1<<TWEA|1<<TWEN|1<<TWIE;	// Или просто примем байт и скажем потом ACK
    12d8:	85 ec       	ldi	r24, 0xC5	; 197
    12da:	80 93 bc 00 	sts	0x00BC, r24
    12de:	c0 c0       	rjmp	.+384    	; 0x1460 <__vector_24+0x388>
			break;
			}

	case 0x48: // Послали SLA+R, но получили NACK. Видать slave занят или его нет дома. 
			{
			i2c_Do |= i2c_ERR_NA;															// Код ошибки No Answer
    12e0:	80 91 74 02 	lds	r24, 0x0274
    12e4:	80 61       	ori	r24, 0x10	; 16
    12e6:	80 93 74 02 	sts	0x0274, r24
			TWCR = 0<<TWSTA|1<<TWSTO|1<<TWINT|i2c_i_am_slave<<TWEA|1<<TWEN|1<<TWIE;			// Шлем Stop
    12ea:	85 e9       	ldi	r24, 0x95	; 149
    12ec:	80 93 bc 00 	sts	0x00BC, r24

			MACRO_i2c_WhatDo_ErrorOut														// Отрабатываем выходную ситуацию ошибки
    12f0:	e0 91 34 01 	lds	r30, 0x0134
    12f4:	f0 91 35 01 	lds	r31, 0x0135
    12f8:	09 95       	icall
			break;
    12fa:	b2 c0       	rjmp	.+356    	; 0x1460 <__vector_24+0x388>
			}

	case 0x50: // Приняли байт.
			{ 
			i2c_Buffer[i2c_index] = TWDR;			// Забрали его из буфера
    12fc:	20 91 62 02 	lds	r18, 0x0262
    1300:	80 91 bb 00 	lds	r24, 0x00BB
    1304:	e2 2f       	mov	r30, r18
    1306:	f0 e0       	ldi	r31, 0x00	; 0
    1308:	ed 59       	subi	r30, 0x9D	; 157
    130a:	fd 4f       	sbci	r31, 0xFD	; 253
    130c:	80 83       	st	Z, r24
			i2c_index++;
    130e:	2f 5f       	subi	r18, 0xFF	; 255
    1310:	20 93 62 02 	sts	0x0262, r18

			// To Do: Добавить проверку переполнения буфера. А то мало ли что юзер затребует

			if (i2c_index+1 == i2c_ByteCount)		// Если остался еще один байт из тех, что мы хотели считать
    1314:	30 e0       	ldi	r19, 0x00	; 0
    1316:	2f 5f       	subi	r18, 0xFF	; 255
    1318:	3f 4f       	sbci	r19, 0xFF	; 255
    131a:	80 91 71 02 	lds	r24, 0x0271
    131e:	90 e0       	ldi	r25, 0x00	; 0
    1320:	28 17       	cp	r18, r24
    1322:	39 07       	cpc	r19, r25
    1324:	21 f4       	brne	.+8      	; 0x132e <__vector_24+0x256>
				{
				TWCR = 0<<TWSTA|0<<TWSTO|1<<TWINT|0<<TWEA|1<<TWEN|1<<TWIE;		// Затребываем его и потом пошлем NACK (Disconnect)
    1326:	85 e8       	ldi	r24, 0x85	; 133
    1328:	80 93 bc 00 	sts	0x00BC, r24
    132c:	99 c0       	rjmp	.+306    	; 0x1460 <__vector_24+0x388>
				}
			else
				{
				TWCR = 0<<TWSTA|0<<TWSTO|1<<TWINT|1<<TWEA|1<<TWEN|1<<TWIE;		// Если нет, то затребываем следующий байт, а в ответ скажем АСК
    132e:	85 ec       	ldi	r24, 0xC5	; 197
    1330:	80 93 bc 00 	sts	0x00BC, r24
    1334:	95 c0       	rjmp	.+298    	; 0x1460 <__vector_24+0x388>
			break;
			}

	case 0x58:	// Вот мы взяли последний байт, сказали NACK слейв обиделся и отпал. 
			{
			i2c_Buffer[i2c_index] = TWDR;													// Взяли байт в буфер
    1336:	80 91 bb 00 	lds	r24, 0x00BB
    133a:	e0 91 62 02 	lds	r30, 0x0262
    133e:	f0 e0       	ldi	r31, 0x00	; 0
    1340:	ed 59       	subi	r30, 0x9D	; 157
    1342:	fd 4f       	sbci	r31, 0xFD	; 253
    1344:	80 83       	st	Z, r24
			TWCR = 0<<TWSTA|1<<TWSTO|1<<TWINT|i2c_i_am_slave<<TWEA|1<<TWEN|1<<TWIE;			// Передали Stop
    1346:	85 e9       	ldi	r24, 0x95	; 149
    1348:	80 93 bc 00 	sts	0x00BC, r24
			
			MACRO_i2c_WhatDo_MasterOut														// Отработали точку выхода
    134c:	e0 91 38 01 	lds	r30, 0x0138
    1350:	f0 91 39 01 	lds	r31, 0x0139
    1354:	09 95       	icall

			break;
    1356:	84 c0       	rjmp	.+264    	; 0x1460 <__vector_24+0x388>
// IIC  Slave ============================================================================

	case 0x68:	// RCV SLA+W Low Priority							// Словили свой адрес во время передачи мастером
	case 0x78:	// RCV SLA+W Low Priority (Broadcast)				// Или это был широковещательный пакет. Не важно
			{
			i2c_Do |= i2c_ERR_LP | i2c_Interrupted;					// Ставим флаг ошибки Low Priority, а также флаг того, что мастера прервали
    1358:	80 91 74 02 	lds	r24, 0x0274
    135c:	80 6a       	ori	r24, 0xA0	; 160
    135e:	80 93 74 02 	sts	0x0274, r24
			
			// Restore Trans after.
			i2c_index = 0;											// Подготовили прерваную передачу заново
    1362:	10 92 62 02 	sts	0x0262, r1
			i2c_PageAddrIndex = 0;
    1366:	10 92 70 02 	sts	0x0270, r1

	case 0x60: // RCV SLA+W  Incoming?								// Или просто получили свой адрес
	case 0x70: // RCV SLA+W  Incoming? (Broascast)					// Или широковещательный пакет
			{

			i2c_Do |= i2c_Busy;										// Занимаем шину. Чтобы другие не совались
    136a:	80 91 74 02 	lds	r24, 0x0274
    136e:	80 64       	ori	r24, 0x40	; 64
    1370:	80 93 74 02 	sts	0x0274, r24
			i2c_SlaveIndex = 0;										// Указатель на начало буфера слейва, Неважно какой буфер. Не ошибемся
    1374:	10 92 72 02 	sts	0x0272, r1

			if (i2c_MasterBytesRX == 1)								// Если нам суждено принять всего один байт, то готовимся принять  его
				{
				TWCR = 0<<TWSTA|0<<TWSTO|1<<TWINT|0<<TWEA|1<<TWEN|1<<TWIE;			// Принять и сказать пошли все н... NACK!
    1378:	85 e8       	ldi	r24, 0x85	; 133
    137a:	80 93 bc 00 	sts	0x00BC, r24
    137e:	70 c0       	rjmp	.+224    	; 0x1460 <__vector_24+0x388>
			}

	case 0x80:	// RCV Data Byte									// И вот мы приняли этот байт. Наш или широковещательный. Не важно
	case 0x90:	// RCV Data Byte (Broadcast)
			{
			i2c_InBuff[i2c_SlaveIndex] = TWDR;						// Сжираем его в буфер.
    1380:	80 91 72 02 	lds	r24, 0x0272
    1384:	90 91 bb 00 	lds	r25, 0x00BB
    1388:	e8 2f       	mov	r30, r24
    138a:	f0 e0       	ldi	r31, 0x00	; 0
    138c:	ed 58       	subi	r30, 0x8D	; 141
    138e:	fd 4f       	sbci	r31, 0xFD	; 253
    1390:	90 83       	st	Z, r25
			
			i2c_SlaveIndex++;										// Сдвигаем указатель
    1392:	8f 5f       	subi	r24, 0xFF	; 255
    1394:	80 93 72 02 	sts	0x0272, r24

			if (i2c_SlaveIndex == i2c_MasterBytesRX-1) 				// Свободно место всего под один байт? 
    1398:	81 11       	cpse	r24, r1
    139a:	04 c0       	rjmp	.+8      	; 0x13a4 <__vector_24+0x2cc>
				{
				TWCR = 0<<TWSTA|0<<TWSTO|1<<TWINT|0<<TWEA|1<<TWEN|1<<TWIE;			// Приянть его и сказать NACK!
    139c:	85 e8       	ldi	r24, 0x85	; 133
    139e:	80 93 bc 00 	sts	0x00BC, r24
    13a2:	5e c0       	rjmp	.+188    	; 0x1460 <__vector_24+0x388>
				}
			else 
				{
				TWCR = 0<<TWSTA|0<<TWSTO|1<<TWINT|1<<TWEA|1<<TWEN|1<<TWIE;			// Места еще дофига? Принять и ACK!
    13a4:	85 ec       	ldi	r24, 0xC5	; 197
    13a6:	80 93 bc 00 	sts	0x00BC, r24
    13aa:	5a c0       	rjmp	.+180    	; 0x1460 <__vector_24+0x388>
			} 

	case 0x88: // RCV Last Byte										// Приянли последний байт
	case 0x98: // RCV Last Byte (Broadcast)
			{
			i2c_InBuff[i2c_SlaveIndex] = TWDR;						// Сожрали его в буфер
    13ac:	80 91 bb 00 	lds	r24, 0x00BB
    13b0:	e0 91 72 02 	lds	r30, 0x0272
    13b4:	f0 e0       	ldi	r31, 0x00	; 0
    13b6:	ed 58       	subi	r30, 0x8D	; 141
    13b8:	fd 4f       	sbci	r31, 0xFD	; 253
    13ba:	80 83       	st	Z, r24
			
			if (i2c_Do & i2c_Interrupted)							// Если у нас был прерываный сеанс от имени мастера
    13bc:	80 91 74 02 	lds	r24, 0x0274
    13c0:	88 23       	and	r24, r24
    13c2:	24 f4       	brge	.+8      	; 0x13cc <__vector_24+0x2f4>
				{
				TWCR = 1<<TWSTA|0<<TWSTO|1<<TWINT|1<<TWEA|1<<TWEN|1<<TWIE;			// Влепим в шину свой Start поскорей и сделаем еще одну попытку
    13c4:	85 ee       	ldi	r24, 0xE5	; 229
    13c6:	80 93 bc 00 	sts	0x00BC, r24
    13ca:	03 c0       	rjmp	.+6      	; 0x13d2 <__vector_24+0x2fa>
				}
			else
				{
				TWCR = 0<<TWSTA|0<<TWSTO|1<<TWINT|1<<TWEA|1<<TWEN|1<<TWIE;			// Если не было такого факта, то просто отвалимся и будем ждать
    13cc:	85 ec       	ldi	r24, 0xC5	; 197
    13ce:	80 93 bc 00 	sts	0x00BC, r24
				}

			MACRO_i2c_WhatDo_SlaveOut												// И лениво отработаем наш выходной экшн для слейва
    13d2:	e0 91 36 01 	lds	r30, 0x0136
    13d6:	f0 91 37 01 	lds	r31, 0x0137
    13da:	09 95       	icall
			break;
    13dc:	41 c0       	rjmp	.+130    	; 0x1460 <__vector_24+0x388>
			{

			// Можно, конечно, сделать вспомогательный автомат, чтобы обрабатывать еще и адреса внутренних страниц, подобно еепромке. 
			// Но я не стал заморачиваться. В этом случае делается это тут.

			TWCR = 0<<TWSTA|0<<TWSTO|1<<TWINT|1<<TWEA|1<<TWEN|1<<TWIE;			// просто разадресуемся, проигнорировав этот посыл	
    13de:	85 ec       	ldi	r24, 0xC5	; 197
    13e0:	80 93 bc 00 	sts	0x00BC, r24
			break;
    13e4:	3d c0       	rjmp	.+122    	; 0x1460 <__vector_24+0x388>



	case 0xB0:  // Поймали свой адрес на чтение во время передачи Мастером			
			{
			i2c_Do |= i2c_ERR_LP | i2c_Interrupted;			// Ну чо, коды ошибки и флаг прерваной передачи.
    13e6:	80 91 74 02 	lds	r24, 0x0274
    13ea:	80 6a       	ori	r24, 0xA0	; 160
    13ec:	80 93 74 02 	sts	0x0274, r24
		
			
			// Восстанавливаем индексы
			i2c_index = 0;
    13f0:	10 92 62 02 	sts	0x0262, r1
			i2c_PageAddrIndex = 0;
    13f4:	10 92 70 02 	sts	0x0270, r1

			}												// Break нет! Идем дальше						

	case 0xA8:	// // Либо просто словили свой адрес на чтение
			{
			i2c_SlaveIndex = 0;								// Индексы слейвовых массивов на 0
    13f8:	10 92 72 02 	sts	0x0272, r1

			TWDR = i2c_OutBuff[i2c_SlaveIndex];				// Чтож, отдадим байт из тех что есть.
    13fc:	80 91 6c 02 	lds	r24, 0x026C
    1400:	80 93 bb 00 	sts	0x00BB, r24
			
			if(i2c_MasterBytesTX == 1)
				{
				TWCR = 0<<TWSTA|0<<TWSTO|1<<TWINT|0<<TWEA|1<<TWEN|1<<TWIE;	// Если он последний, мы еще на NACK в ответ надеемся 
    1404:	85 e8       	ldi	r24, 0x85	; 133
    1406:	80 93 bc 00 	sts	0x00BC, r24
    140a:	2a c0       	rjmp	.+84     	; 0x1460 <__vector_24+0x388>
			

	case 0xB8: // Послали байт, получили ACK
			{

			i2c_SlaveIndex++;								// Значит продолжаем дискотеку. Берем следующий байт
    140c:	e0 91 72 02 	lds	r30, 0x0272
    1410:	ef 5f       	subi	r30, 0xFF	; 255
    1412:	e0 93 72 02 	sts	0x0272, r30
			TWDR = i2c_OutBuff[i2c_SlaveIndex];				// Даем его мастеру
    1416:	f0 e0       	ldi	r31, 0x00	; 0
    1418:	e4 59       	subi	r30, 0x94	; 148
    141a:	fd 4f       	sbci	r31, 0xFD	; 253
    141c:	80 81       	ld	r24, Z
    141e:	80 93 bb 00 	sts	0x00BB, r24

			if (i2c_SlaveIndex == i2c_MasterBytesTX-1)		// Если он последний был, то
    1422:	80 91 72 02 	lds	r24, 0x0272
    1426:	81 11       	cpse	r24, r1
    1428:	04 c0       	rjmp	.+8      	; 0x1432 <__vector_24+0x35a>
				{
				TWCR = 0<<TWSTA|0<<TWSTO|1<<TWINT|0<<TWEA|1<<TWEN|1<<TWIE;	// Шлем его и ждем NACK
    142a:	85 e8       	ldi	r24, 0x85	; 133
    142c:	80 93 bc 00 	sts	0x00BC, r24
    1430:	17 c0       	rjmp	.+46     	; 0x1460 <__vector_24+0x388>
				}
			else
				{
				TWCR = 0<<TWSTA|0<<TWSTO|1<<TWINT|1<<TWEA|0<<TWEN|1<<TWIE;	// Если нет, то шлем и ждем ACK
    1432:	81 ec       	ldi	r24, 0xC1	; 193
    1434:	80 93 bc 00 	sts	0x00BC, r24
    1438:	13 c0       	rjmp	.+38     	; 0x1460 <__vector_24+0x388>
			}

	case 0xC0: // Мы выслали последний байт, больше у нас нет, получили NACK
	case 0xC8: // или ACK. В данном случае нам пох. Т.к. больше байтов у нас нет.
			{
			if (i2c_Do & i2c_Interrupted)											// Если там была прерваная передача мастера
    143a:	80 91 74 02 	lds	r24, 0x0274
    143e:	88 23       	and	r24, r24
    1440:	3c f4       	brge	.+14     	; 0x1450 <__vector_24+0x378>
				{																	// То мы ему ее вернем
				i2c_Do &= i2c_NoInterrupted;										// Снимем флаг прерваности
    1442:	8f 77       	andi	r24, 0x7F	; 127
    1444:	80 93 74 02 	sts	0x0274, r24
				TWCR = 1<<TWSTA|0<<TWSTO|1<<TWINT|1<<TWEA|1<<TWEN|1<<TWIE;			// Сгенерим старт сразу же как получим шину.
    1448:	85 ee       	ldi	r24, 0xE5	; 229
    144a:	80 93 bc 00 	sts	0x00BC, r24
    144e:	03 c0       	rjmp	.+6      	; 0x1456 <__vector_24+0x37e>
				}
			else
				{
				TWCR = 0<<TWSTA|0<<TWSTO|1<<TWINT|1<<TWEA|1<<TWEN|1<<TWIE;			// Если мы там одни, то просто отдадим шину
    1450:	85 ec       	ldi	r24, 0xC5	; 197
    1452:	80 93 bc 00 	sts	0x00BC, r24
				}

			MACRO_i2c_WhatDo_SlaveOut												// И отработаем выход слейва. Впрочем, он тут
    1456:	e0 91 36 01 	lds	r30, 0x0136
    145a:	f0 91 37 01 	lds	r31, 0x0137
    145e:	09 95       	icall
			break;																	// Нас почтил своим визитом.
			}

	default:	break;
	}
}
    1460:	ff 91       	pop	r31
    1462:	ef 91       	pop	r30
    1464:	bf 91       	pop	r27
    1466:	af 91       	pop	r26
    1468:	9f 91       	pop	r25
    146a:	8f 91       	pop	r24
    146c:	7f 91       	pop	r23
    146e:	6f 91       	pop	r22
    1470:	5f 91       	pop	r21
    1472:	4f 91       	pop	r20
    1474:	3f 91       	pop	r19
    1476:	2f 91       	pop	r18
    1478:	0f 90       	pop	r0
    147a:	0f be       	out	0x3f, r0	; 63
    147c:	0f 90       	pop	r0
    147e:	1f 90       	pop	r1
    1480:	18 95       	reti

00001482 <Init_i2c>:
{
}

void Init_i2c(void)							// Настройка режима мастера
{
i2c_PORT |= 1<<i2c_SCL|1<<i2c_SDA;			// Включим подтяжку на ноги, вдруг юзер на резисторы пожмотился
    1482:	88 b1       	in	r24, 0x08	; 8
    1484:	80 63       	ori	r24, 0x30	; 48
    1486:	88 b9       	out	0x08, r24	; 8
i2c_DDR &=~(1<<i2c_SCL|1<<i2c_SDA);
    1488:	87 b1       	in	r24, 0x07	; 7
    148a:	8f 7c       	andi	r24, 0xCF	; 207
    148c:	87 b9       	out	0x07, r24	; 7

//TWBR = 0xFF;         						// Настроим битрейт
//TWSR = 0x03;

TWBR = 0x48;         						// Настроим битрейт
    148e:	88 e4       	ldi	r24, 0x48	; 72
    1490:	80 93 b8 00 	sts	0x00B8, r24
TWSR = 0x0;
    1494:	10 92 b9 00 	sts	0x00B9, r1
    1498:	08 95       	ret

0000149a <Idle>:
}


//Пустая процедура - простой ядра. 
inline void  Idle(void)
{
    149a:	08 95       	ret

0000149c <InitRTOS>:
	u16 Time;							// Выдержка в мс
} MainTimer[MainTimerQueueSize+1];	// Очередь таймеров


// RTOS Подготовка. Очистка очередей
inline void InitRTOS(void) {
    149c:	80 e0       	ldi	r24, 0x00	; 0
    149e:	90 e0       	ldi	r25, 0x00	; 0
u08	index;

	for(index=0;index!=TaskQueueSize+1;index++)	// Во все позиции записываем Idle
	{
		TaskQueue[index] = Idle;
    14a0:	2d e4       	ldi	r18, 0x4D	; 77
    14a2:	3a e0       	ldi	r19, 0x0A	; 10
    14a4:	fc 01       	movw	r30, r24
    14a6:	ee 0f       	add	r30, r30
    14a8:	ff 1f       	adc	r31, r31
    14aa:	e4 56       	subi	r30, 0x64	; 100
    14ac:	fe 4f       	sbci	r31, 0xFE	; 254
    14ae:	31 83       	std	Z+1, r19	; 0x01
    14b0:	20 83       	st	Z, r18
    14b2:	01 96       	adiw	r24, 0x01	; 1

// RTOS Подготовка. Очистка очередей
inline void InitRTOS(void) {
u08	index;

	for(index=0;index!=TaskQueueSize+1;index++)	// Во все позиции записываем Idle
    14b4:	85 31       	cpi	r24, 0x15	; 21
    14b6:	91 05       	cpc	r25, r1
    14b8:	a9 f7       	brne	.-22     	; 0x14a4 <InitRTOS+0x8>
    14ba:	80 e0       	ldi	r24, 0x00	; 0
    14bc:	90 e0       	ldi	r25, 0x00	; 0
	}


	for(index=0;index!=MainTimerQueueSize+1;index++) // Обнуляем все таймеры.
	{
		MainTimer[index].GoToTask = Idle;
    14be:	2d e4       	ldi	r18, 0x4D	; 77
    14c0:	3a e0       	ldi	r19, 0x0A	; 10
    14c2:	fc 01       	movw	r30, r24
    14c4:	ee 0f       	add	r30, r30
    14c6:	ff 1f       	adc	r31, r31
    14c8:	ee 0f       	add	r30, r30
    14ca:	ff 1f       	adc	r31, r31
    14cc:	e4 5a       	subi	r30, 0xA4	; 164
    14ce:	fe 4f       	sbci	r31, 0xFE	; 254
    14d0:	31 83       	std	Z+1, r19	; 0x01
    14d2:	20 83       	st	Z, r18
		MainTimer[index].Time = 0;
    14d4:	13 82       	std	Z+3, r1	; 0x03
    14d6:	12 82       	std	Z+2, r1	; 0x02
    14d8:	01 96       	adiw	r24, 0x01	; 1
	{
		TaskQueue[index] = Idle;
	}


	for(index=0;index!=MainTimerQueueSize+1;index++) // Обнуляем все таймеры.
    14da:	80 31       	cpi	r24, 0x10	; 16
    14dc:	91 05       	cpc	r25, r1
    14de:	89 f7       	brne	.-30     	; 0x14c2 <InitRTOS+0x26>
	{
		MainTimer[index].GoToTask = Idle;
		MainTimer[index].Time = 0;
	}
}
    14e0:	08 95       	ret

000014e2 <SetTask>:
// Отдаваемое значение - код ошибки.
void SetTask(TPTR TS) {
u08		index = 0;
u08		nointerrupted = 0;

	if (STATUS_REG & (1<<Interrupt_Flag))  // Если прерывания разрешены, то запрещаем их.
    14e2:	0f b6       	in	r0, 0x3f	; 63
    14e4:	07 fe       	sbrs	r0, 7
    14e6:	0c c0       	rjmp	.+24     	; 0x1500 <SetTask+0x1e>
	{
		Disable_Interrupt
    14e8:	f8 94       	cli
		nointerrupted = 1;					// И ставим флаг, что мы не в прерывании. 
    14ea:	a1 e0       	ldi	r26, 0x01	; 1
    14ec:	0a c0       	rjmp	.+20     	; 0x1502 <SetTask+0x20>
    14ee:	2f 5f       	subi	r18, 0xFF	; 255
    14f0:	3f 4f       	sbci	r19, 0xFF	; 255
	}

	while(TaskQueue[index]!=Idle) 			// Прочесываем очередь задач на предмет свободной ячейки
	{									// с значением Idle - конец очереди.
		index++;
		if (index==TaskQueueSize+1) 		// Если очередь переполнена то выходим не солоно хлебавши
    14f2:	25 31       	cpi	r18, 0x15	; 21
    14f4:	31 05       	cpc	r19, r1
    14f6:	39 f4       	brne	.+14     	; 0x1506 <SetTask+0x24>
		{
			if (nointerrupted)	Enable_Interrupt 	// Если мы не в прерывании, то разрешаем прерывания
    14f8:	aa 23       	and	r26, r26
    14fa:	c9 f0       	breq	.+50     	; 0x152e <SetTask+0x4c>
    14fc:	78 94       	sei
    14fe:	08 95       	ret

// Функция установки задачи в очередь. Передаваемый параметр - указатель на функцию
// Отдаваемое значение - код ошибки.
void SetTask(TPTR TS) {
u08		index = 0;
u08		nointerrupted = 0;
    1500:	a0 e0       	ldi	r26, 0x00	; 0
    1502:	20 e0       	ldi	r18, 0x00	; 0
    1504:	30 e0       	ldi	r19, 0x00	; 0
	{
		Disable_Interrupt
		nointerrupted = 1;					// И ставим флаг, что мы не в прерывании. 
	}

	while(TaskQueue[index]!=Idle) 			// Прочесываем очередь задач на предмет свободной ячейки
    1506:	f9 01       	movw	r30, r18
    1508:	ee 0f       	add	r30, r30
    150a:	ff 1f       	adc	r31, r31
    150c:	e4 56       	subi	r30, 0x64	; 100
    150e:	fe 4f       	sbci	r31, 0xFE	; 254
    1510:	40 81       	ld	r20, Z
    1512:	51 81       	ldd	r21, Z+1	; 0x01
    1514:	4d 54       	subi	r20, 0x4D	; 77
    1516:	5a 40       	sbci	r21, 0x0A	; 10
    1518:	51 f7       	brne	.-44     	; 0x14ee <SetTask+0xc>
			if (nointerrupted)	Enable_Interrupt 	// Если мы не в прерывании, то разрешаем прерывания
			return;									// Раньше функция возвращала код ошибки - очередь переполнена. Пока убрал.
		}
	}
												// Если нашли свободное место, то
	TaskQueue[index] = TS;							// Записываем в очередь задачу
    151a:	f9 01       	movw	r30, r18
    151c:	ee 0f       	add	r30, r30
    151e:	ff 1f       	adc	r31, r31
    1520:	e4 56       	subi	r30, 0x64	; 100
    1522:	fe 4f       	sbci	r31, 0xFE	; 254
    1524:	91 83       	std	Z+1, r25	; 0x01
    1526:	80 83       	st	Z, r24
	if (nointerrupted) Enable_Interrupt				// И включаем прерывания если не в обработчике прерывания.
    1528:	aa 23       	and	r26, r26
    152a:	09 f0       	breq	.+2      	; 0x152e <SetTask+0x4c>
    152c:	78 94       	sei
    152e:	08 95       	ret

00001530 <SetTimerTask>:



//Функция установки задачи по таймеру. Передаваемые параметры - указатель на функцию, 
// Время выдержки в тиках системного таймера. Возвращет код ошибки.
void SetTimerTask(TPTR TS, u16 NewTime) {
    1530:	cf 93       	push	r28
u08		index=0;
u08		nointerrupted = 0;

	if (STATUS_REG & (1<<Interrupt_Flag)) 			// Проверка запрета прерывания, аналогично функции выше
    1532:	0f b6       	in	r0, 0x3f	; 63
    1534:	07 fe       	sbrs	r0, 7
    1536:	03 c0       	rjmp	.+6      	; 0x153e <SetTimerTask+0xe>
	{
		Disable_Interrupt
    1538:	f8 94       	cli
		nointerrupted = 1;
    153a:	c1 e0       	ldi	r28, 0x01	; 1
    153c:	01 c0       	rjmp	.+2      	; 0x1540 <SetTimerTask+0x10>

//Функция установки задачи по таймеру. Передаваемые параметры - указатель на функцию, 
// Время выдержки в тиках системного таймера. Возвращет код ошибки.
void SetTimerTask(TPTR TS, u16 NewTime) {
u08		index=0;
u08		nointerrupted = 0;
    153e:	c0 e0       	ldi	r28, 0x00	; 0
	}


	for(index=0;index!=MainTimerQueueSize+1;++index)	//Прочесываем очередь таймеров
	{
		if(MainTimer[index].GoToTask == TS)				// Если уже есть запись с таким адресом
    1540:	20 91 5c 01 	lds	r18, 0x015C
    1544:	30 91 5d 01 	lds	r19, 0x015D
    1548:	28 17       	cp	r18, r24
    154a:	39 07       	cpc	r19, r25
    154c:	81 f0       	breq	.+32     	; 0x156e <SetTimerTask+0x3e>
    154e:	21 e0       	ldi	r18, 0x01	; 1
    1550:	30 e0       	ldi	r19, 0x00	; 0
    1552:	d9 01       	movw	r26, r18
    1554:	f9 01       	movw	r30, r18
    1556:	ee 0f       	add	r30, r30
    1558:	ff 1f       	adc	r31, r31
    155a:	ee 0f       	add	r30, r30
    155c:	ff 1f       	adc	r31, r31
    155e:	e4 5a       	subi	r30, 0xA4	; 164
    1560:	fe 4f       	sbci	r31, 0xFE	; 254
    1562:	40 81       	ld	r20, Z
    1564:	51 81       	ldd	r21, Z+1	; 0x01
    1566:	48 17       	cp	r20, r24
    1568:	59 07       	cpc	r21, r25
    156a:	89 f4       	brne	.+34     	; 0x158e <SetTimerTask+0x5e>
    156c:	02 c0       	rjmp	.+4      	; 0x1572 <SetTimerTask+0x42>
    156e:	a0 e0       	ldi	r26, 0x00	; 0
    1570:	b0 e0       	ldi	r27, 0x00	; 0
		{
			MainTimer[index].Time = NewTime;			// Перезаписываем ей выдержку
    1572:	aa 0f       	add	r26, r26
    1574:	bb 1f       	adc	r27, r27
    1576:	aa 0f       	add	r26, r26
    1578:	bb 1f       	adc	r27, r27
    157a:	a4 5a       	subi	r26, 0xA4	; 164
    157c:	be 4f       	sbci	r27, 0xFE	; 254
    157e:	13 96       	adiw	r26, 0x03	; 3
    1580:	7c 93       	st	X, r23
    1582:	6e 93       	st	-X, r22
    1584:	12 97       	sbiw	r26, 0x02	; 2
			if (nointerrupted) 	Enable_Interrupt		// Разрешаем прерывания если не были запрещены.
    1586:	cc 23       	and	r28, r28
    1588:	b1 f1       	breq	.+108    	; 0x15f6 <SetTimerTask+0xc6>
    158a:	78 94       	sei
    158c:	34 c0       	rjmp	.+104    	; 0x15f6 <SetTimerTask+0xc6>
    158e:	2f 5f       	subi	r18, 0xFF	; 255
    1590:	3f 4f       	sbci	r19, 0xFF	; 255
		Disable_Interrupt
		nointerrupted = 1;
	}


	for(index=0;index!=MainTimerQueueSize+1;++index)	//Прочесываем очередь таймеров
    1592:	20 31       	cpi	r18, 0x10	; 16
    1594:	31 05       	cpc	r19, r1
    1596:	e9 f6       	brne	.-70     	; 0x1552 <SetTimerTask+0x22>
	}
	

	for(index=0;index!=MainTimerQueueSize+1;++index)	// Если не находим похожий таймер, то ищем любой пустой	
	{
		if (MainTimer[index].GoToTask == Idle)		
    1598:	20 91 5c 01 	lds	r18, 0x015C
    159c:	30 91 5d 01 	lds	r19, 0x015D
    15a0:	2d 54       	subi	r18, 0x4D	; 77
    15a2:	3a 40       	sbci	r19, 0x0A	; 10
    15a4:	81 f0       	breq	.+32     	; 0x15c6 <SetTimerTask+0x96>
    15a6:	21 e0       	ldi	r18, 0x01	; 1
    15a8:	30 e0       	ldi	r19, 0x00	; 0
    15aa:	d9 01       	movw	r26, r18
    15ac:	f9 01       	movw	r30, r18
    15ae:	ee 0f       	add	r30, r30
    15b0:	ff 1f       	adc	r31, r31
    15b2:	ee 0f       	add	r30, r30
    15b4:	ff 1f       	adc	r31, r31
    15b6:	e4 5a       	subi	r30, 0xA4	; 164
    15b8:	fe 4f       	sbci	r31, 0xFE	; 254
    15ba:	40 81       	ld	r20, Z
    15bc:	51 81       	ldd	r21, Z+1	; 0x01
    15be:	4d 54       	subi	r20, 0x4D	; 77
    15c0:	5a 40       	sbci	r21, 0x0A	; 10
    15c2:	a1 f4       	brne	.+40     	; 0x15ec <SetTimerTask+0xbc>
    15c4:	02 c0       	rjmp	.+4      	; 0x15ca <SetTimerTask+0x9a>
    15c6:	a0 e0       	ldi	r26, 0x00	; 0
    15c8:	b0 e0       	ldi	r27, 0x00	; 0
		{
			MainTimer[index].GoToTask = TS;			// Заполняем поле перехода задачи
    15ca:	aa 0f       	add	r26, r26
    15cc:	bb 1f       	adc	r27, r27
    15ce:	aa 0f       	add	r26, r26
    15d0:	bb 1f       	adc	r27, r27
    15d2:	a4 5a       	subi	r26, 0xA4	; 164
    15d4:	be 4f       	sbci	r27, 0xFE	; 254
    15d6:	11 96       	adiw	r26, 0x01	; 1
    15d8:	9c 93       	st	X, r25
    15da:	8e 93       	st	-X, r24
			MainTimer[index].Time = NewTime;		// И поле выдержки времени
    15dc:	13 96       	adiw	r26, 0x03	; 3
    15de:	7c 93       	st	X, r23
    15e0:	6e 93       	st	-X, r22
    15e2:	12 97       	sbiw	r26, 0x02	; 2
			if (nointerrupted) 	Enable_Interrupt	// Разрешаем прерывания
    15e4:	cc 23       	and	r28, r28
    15e6:	39 f0       	breq	.+14     	; 0x15f6 <SetTimerTask+0xc6>
    15e8:	78 94       	sei
    15ea:	05 c0       	rjmp	.+10     	; 0x15f6 <SetTimerTask+0xc6>
    15ec:	2f 5f       	subi	r18, 0xFF	; 255
    15ee:	3f 4f       	sbci	r19, 0xFF	; 255
			return;										// Выходим. Раньше был код успешной операции. Пока убрал
		}
	}
	

	for(index=0;index!=MainTimerQueueSize+1;++index)	// Если не находим похожий таймер, то ищем любой пустой	
    15f0:	20 31       	cpi	r18, 0x10	; 16
    15f2:	31 05       	cpc	r19, r1
    15f4:	d1 f6       	brne	.-76     	; 0x15aa <SetTimerTask+0x7a>
			if (nointerrupted) 	Enable_Interrupt	// Разрешаем прерывания
			return;									// Выход. 
		}
		
	}												// тут можно сделать return c кодом ошибки - нет свободных таймеров
}
    15f6:	cf 91       	pop	r28
    15f8:	08 95       	ret

000015fa <TaskManager>:

inline void TaskManager(void) {
u08		index=0;
TPTR	GoToTask = Idle;		// Инициализируем переменные

	Disable_Interrupt				// Запрещаем прерывания!!!
    15fa:	f8 94       	cli
	GoToTask = TaskQueue[0];		// Хватаем первое значение из очереди
    15fc:	e0 91 9c 01 	lds	r30, 0x019C
    1600:	f0 91 9d 01 	lds	r31, 0x019D

	if (GoToTask==Idle) 			// Если там пусто
    1604:	8a e0       	ldi	r24, 0x0A	; 10
    1606:	ed 34       	cpi	r30, 0x4D	; 77
    1608:	f8 07       	cpc	r31, r24
    160a:	11 f4       	brne	.+4      	; 0x1610 <TaskManager+0x16>
	{
		Enable_Interrupt			// Разрешаем прерывания
    160c:	78 94       	sei
    160e:	20 c0       	rjmp	.+64     	; 0x1650 <TaskManager+0x56>
TPTR	GoToTask = Idle;		// Инициализируем переменные

	Disable_Interrupt				// Запрещаем прерывания!!!
	GoToTask = TaskQueue[0];		// Хватаем первое значение из очереди

	if (GoToTask==Idle) 			// Если там пусто
    1610:	20 e0       	ldi	r18, 0x00	; 0
    1612:	30 e0       	ldi	r19, 0x00	; 0
    1614:	c9 01       	movw	r24, r18
    1616:	01 96       	adiw	r24, 0x01	; 1
	{
		Enable_Interrupt			// Разрешаем прерывания
		(Idle)(); 					// Переходим на обработку пустого цикла
	} else {
		for(index=0;index!=TaskQueueSize;index++) {	// В противном случае сдвигаем всю очередь
			TaskQueue[index]=TaskQueue[index+1];
    1618:	dc 01       	movw	r26, r24
    161a:	aa 0f       	add	r26, r26
    161c:	bb 1f       	adc	r27, r27
    161e:	a4 56       	subi	r26, 0x64	; 100
    1620:	be 4f       	sbci	r27, 0xFE	; 254
    1622:	4d 91       	ld	r20, X+
    1624:	5c 91       	ld	r21, X
    1626:	d9 01       	movw	r26, r18
    1628:	aa 0f       	add	r26, r26
    162a:	bb 1f       	adc	r27, r27
    162c:	a4 56       	subi	r26, 0x64	; 100
    162e:	be 4f       	sbci	r27, 0xFE	; 254
    1630:	11 96       	adiw	r26, 0x01	; 1
    1632:	5c 93       	st	X, r21
    1634:	4e 93       	st	-X, r20
	if (GoToTask==Idle) 			// Если там пусто
	{
		Enable_Interrupt			// Разрешаем прерывания
		(Idle)(); 					// Переходим на обработку пустого цикла
	} else {
		for(index=0;index!=TaskQueueSize;index++) {	// В противном случае сдвигаем всю очередь
    1636:	84 31       	cpi	r24, 0x14	; 20
    1638:	91 05       	cpc	r25, r1
    163a:	11 f0       	breq	.+4      	; 0x1640 <TaskManager+0x46>
    163c:	9c 01       	movw	r18, r24
    163e:	ea cf       	rjmp	.-44     	; 0x1614 <TaskManager+0x1a>
			TaskQueue[index]=TaskQueue[index+1];
		}
		TaskQueue[TaskQueueSize]= Idle;					// В последнюю запись пихаем затычку
    1640:	8d e4       	ldi	r24, 0x4D	; 77
    1642:	9a e0       	ldi	r25, 0x0A	; 10
    1644:	90 93 c5 01 	sts	0x01C5, r25
    1648:	80 93 c4 01 	sts	0x01C4, r24

		Enable_Interrupt							// Разрешаем прерывания
    164c:	78 94       	sei
		(GoToTask)();								// Переходим к задаче
    164e:	09 95       	icall
	}
	dispatchMessage();
    1650:	0e 94 b5 0b 	call	0x176a	; 0x176a <dispatchMessage>
    1654:	08 95       	ret

00001656 <__vector_11>:
	}
}

//RTOS Interrupt
ISR(RTOS_ISR)
{
    1656:	1f 92       	push	r1
    1658:	0f 92       	push	r0
    165a:	0f b6       	in	r0, 0x3f	; 63
    165c:	0f 92       	push	r0
    165e:	11 24       	eor	r1, r1
    1660:	ef 92       	push	r14
    1662:	ff 92       	push	r15
    1664:	0f 93       	push	r16
    1666:	1f 93       	push	r17
    1668:	2f 93       	push	r18
    166a:	3f 93       	push	r19
    166c:	4f 93       	push	r20
    166e:	5f 93       	push	r21
    1670:	6f 93       	push	r22
    1672:	7f 93       	push	r23
    1674:	8f 93       	push	r24
    1676:	9f 93       	push	r25
    1678:	af 93       	push	r26
    167a:	bf 93       	push	r27
    167c:	cf 93       	push	r28
    167e:	df 93       	push	r29
    1680:	ef 93       	push	r30
    1682:	ff 93       	push	r31
    1684:	c0 e0       	ldi	r28, 0x00	; 0
    1686:	d0 e0       	ldi	r29, 0x00	; 0
			MainTimer[index].Time --;						// Уменьшаем число в ячейке если не конец.
		}
		else
		{
			SetTask(MainTimer[index].GoToTask);				// Дощелкали до нуля? Пихаем в очередь задачу
			MainTimer[index].GoToTask = Idle;				// А в ячейку пишем затычку
    1688:	0d e4       	ldi	r16, 0x4D	; 77
    168a:	1a e0       	ldi	r17, 0x0A	; 10
inline void TimerService(void){
u08 index;

	for(index=0;index!=MainTimerQueueSize+1;index++)		// Прочесываем очередь таймеров
	{
		if(MainTimer[index].GoToTask == Idle) continue;		// Если нашли пустышку - щелкаем следующую итерацию
    168c:	fe 01       	movw	r30, r28
    168e:	de 01       	movw	r26, r28
    1690:	aa 0f       	add	r26, r26
    1692:	bb 1f       	adc	r27, r27
    1694:	aa 0f       	add	r26, r26
    1696:	bb 1f       	adc	r27, r27
    1698:	a4 5a       	subi	r26, 0xA4	; 164
    169a:	be 4f       	sbci	r27, 0xFE	; 254
    169c:	8d 91       	ld	r24, X+
    169e:	9c 91       	ld	r25, X
    16a0:	8d 54       	subi	r24, 0x4D	; 77
    16a2:	9a 40       	sbci	r25, 0x0A	; 10
    16a4:	21 f1       	breq	.+72     	; 0x16ee <__vector_11+0x98>

		if(MainTimer[index].Time !=1)						// Если таймер не выщелкал, то щелкаем еще раз. 
    16a6:	de 01       	movw	r26, r28
    16a8:	aa 0f       	add	r26, r26
    16aa:	bb 1f       	adc	r27, r27
    16ac:	aa 0f       	add	r26, r26
    16ae:	bb 1f       	adc	r27, r27
    16b0:	a4 5a       	subi	r26, 0xA4	; 164
    16b2:	be 4f       	sbci	r27, 0xFE	; 254
    16b4:	12 96       	adiw	r26, 0x02	; 2
    16b6:	8d 91       	ld	r24, X+
    16b8:	9c 91       	ld	r25, X
    16ba:	13 97       	sbiw	r26, 0x03	; 3
    16bc:	01 97       	sbiw	r24, 0x01	; 1
    16be:	39 f0       	breq	.+14     	; 0x16ce <__vector_11+0x78>
		{													// To Do: Вычислить по тактам, что лучше !=1 или !=0. 
			MainTimer[index].Time --;						// Уменьшаем число в ячейке если не конец.
    16c0:	fd 01       	movw	r30, r26
    16c2:	82 81       	ldd	r24, Z+2	; 0x02
    16c4:	93 81       	ldd	r25, Z+3	; 0x03
    16c6:	01 97       	sbiw	r24, 0x01	; 1
    16c8:	93 83       	std	Z+3, r25	; 0x03
    16ca:	82 83       	std	Z+2, r24	; 0x02
    16cc:	10 c0       	rjmp	.+32     	; 0x16ee <__vector_11+0x98>
		}
		else
		{
			SetTask(MainTimer[index].GoToTask);				// Дощелкали до нуля? Пихаем в очередь задачу
    16ce:	ee 0f       	add	r30, r30
    16d0:	ff 1f       	adc	r31, r31
    16d2:	ee 0f       	add	r30, r30
    16d4:	ff 1f       	adc	r31, r31
    16d6:	cf 01       	movw	r24, r30
    16d8:	84 5a       	subi	r24, 0xA4	; 164
    16da:	9e 4f       	sbci	r25, 0xFE	; 254
    16dc:	7c 01       	movw	r14, r24
    16de:	fc 01       	movw	r30, r24
    16e0:	80 81       	ld	r24, Z
    16e2:	91 81       	ldd	r25, Z+1	; 0x01
    16e4:	0e 94 71 0a 	call	0x14e2	; 0x14e2 <SetTask>
			MainTimer[index].GoToTask = Idle;				// А в ячейку пишем затычку
    16e8:	f7 01       	movw	r30, r14
    16ea:	11 83       	std	Z+1, r17	; 0x01
    16ec:	00 83       	st	Z, r16
    16ee:	21 96       	adiw	r28, 0x01	; 1
В этом случае не забыть добавить проверку прерывания. 
*/
inline void TimerService(void){
u08 index;

	for(index=0;index!=MainTimerQueueSize+1;index++)		// Прочесываем очередь таймеров
    16f0:	c0 31       	cpi	r28, 0x10	; 16
    16f2:	d1 05       	cpc	r29, r1
    16f4:	59 f6       	brne	.-106    	; 0x168c <__vector_11+0x36>

//RTOS Interrupt
ISR(RTOS_ISR)
{
	TimerService();						// Прерывание ядра диспетчера
}
    16f6:	ff 91       	pop	r31
    16f8:	ef 91       	pop	r30
    16fa:	df 91       	pop	r29
    16fc:	cf 91       	pop	r28
    16fe:	bf 91       	pop	r27
    1700:	af 91       	pop	r26
    1702:	9f 91       	pop	r25
    1704:	8f 91       	pop	r24
    1706:	7f 91       	pop	r23
    1708:	6f 91       	pop	r22
    170a:	5f 91       	pop	r21
    170c:	4f 91       	pop	r20
    170e:	3f 91       	pop	r19
    1710:	2f 91       	pop	r18
    1712:	1f 91       	pop	r17
    1714:	0f 91       	pop	r16
    1716:	ff 90       	pop	r15
    1718:	ef 90       	pop	r14
    171a:	0f 90       	pop	r0
    171c:	0f be       	out	0x3f, r0	; 63
    171e:	0f 90       	pop	r0
    1720:	1f 90       	pop	r1
    1722:	18 95       	reti

00001724 <RunRTOS>:
	OCR2A  = LO(TimerDivider); 			// Установить значение в регистр сравнения

	TIMSK2 = _BV(OCIE2A);				// Разрешаем прерывание RTOS - запуск ОС
*/

	TCCR1B |=  _BV(WGM12) | (0<<CS12) | (1<<CS11) | (1<<CS10);		// PRESCAler 64
    1724:	e1 e8       	ldi	r30, 0x81	; 129
    1726:	f0 e0       	ldi	r31, 0x00	; 0
    1728:	80 81       	ld	r24, Z
    172a:	8b 60       	ori	r24, 0x0B	; 11
    172c:	80 83       	st	Z, r24
	OCR1A = 250; /* Magical constant - 1 ms */
    172e:	8a ef       	ldi	r24, 0xFA	; 250
    1730:	90 e0       	ldi	r25, 0x00	; 0
    1732:	90 93 89 00 	sts	0x0089, r25
    1736:	80 93 88 00 	sts	0x0088, r24
	TIMSK1 |= _BV(OCIE1A);
    173a:	ef e6       	ldi	r30, 0x6F	; 111
    173c:	f0 e0       	ldi	r31, 0x00	; 0
    173e:	80 81       	ld	r24, Z
    1740:	82 60       	ori	r24, 0x02	; 2
    1742:	80 83       	st	Z, r24
	
	Enable_Interrupt;
    1744:	78 94       	sei
    1746:	08 95       	ret

00001748 <InitAll>:
{

	// 1- output, 0-input
	// Port B
	// 0 - ~SD_Select, 1 - E_Reset, 2 - E_Select, 3 - MOSI, 4 - MISO, 5 - SCK
	PORTB = _BV(PORTB0) | _BV(PORTB1) | _BV(PORTB2) | _BV(PORTB3) | _BV(PORTB5);
    1748:	8f e2       	ldi	r24, 0x2F	; 47
    174a:	85 b9       	out	0x05, r24	; 5
	DDRB = _BV(PORTB0) | _BV(PORTB1) | _BV(PORTB2) | _BV(PORTB3) | _BV(PORTB5);
    174c:	84 b9       	out	0x04, r24	; 4

	SPCR = (1<<SPE)|(1<<MSTR);								// enable SPI, master mode 0
    174e:	80 e5       	ldi	r24, 0x50	; 80
    1750:	8c bd       	out	0x2c, r24	; 44
	SPSR |= (1<<SPI2X);										// set the clock rate fck/2
    1752:	8d b5       	in	r24, 0x2d	; 45
    1754:	81 60       	ori	r24, 0x01	; 1
    1756:	8d bd       	out	0x2d, r24	; 45

	//
	// PORT C
	// 0-3 - выходные оптроны, 4 - SDA, 5 - SCL, 6 -SPI0 (~CS для spi на разъеме) , 7 - NC
	//
	PORTC = _BV(PORTC4) | _BV(PORTC5) | _BV(PORTC6);
    1758:	80 e7       	ldi	r24, 0x70	; 112
    175a:	88 b9       	out	0x08, r24	; 8
	DDRC = _BV(PORTC0) |_BV(PORTC1) |_BV(PORTC2) |_BV(PORTC3) | _BV(PORTC6);	// |_BV(PORTC4) | _BV(PORTC5)
    175c:	8f e4       	ldi	r24, 0x4F	; 79
    175e:	87 b9       	out	0x07, r24	; 7

	// Port D
	// 0 -RxD, 1 - TxD, 2 - INT0 (клавиатура), 3 - INT1 (входные датчики), 4 - 485_RW (~RE/DE), 5,6 -reserve, 7 - SD_DETECT
	//
	PORTD = _BV(PORTD1) | _BV(PORTD4) | _BV(PORTD2);
    1760:	86 e1       	ldi	r24, 0x16	; 22
    1762:	8b b9       	out	0x0b, r24	; 11
	DDRD = _BV(PORTD0) | _BV(PORTD4) | _BV(PORTD5) | _BV(PORTD6);
    1764:	81 e7       	ldi	r24, 0x71	; 113
    1766:	8a b9       	out	0x0a, r24	; 10
    1768:	08 95       	ret

0000176a <dispatchMessage>:
	SetTask(dispatchMessage);
}


// обработка событий
void dispatchMessage(void) {
    176a:	0f 93       	push	r16
    176c:	1f 93       	push	r17
    176e:	cf 93       	push	r28
    1770:	df 93       	push	r29
	int8_t i;
	uint8_t res;
	msg_num msg;
	msg_par par;

	if (hMesPointer == lMesPointer) { // если пустая очередь - возврат
    1772:	20 91 75 02 	lds	r18, 0x0275
    1776:	30 91 76 02 	lds	r19, 0x0276
    177a:	80 91 77 02 	lds	r24, 0x0277
    177e:	90 91 78 02 	lds	r25, 0x0278
    1782:	28 17       	cp	r18, r24
    1784:	39 07       	cpc	r19, r25
    1786:	09 f4       	brne	.+2      	; 0x178a <dispatchMessage+0x20>
    1788:	52 c0       	rjmp	.+164    	; 0x182e <dispatchMessage+0xc4>
		return;
	}

	ATOMIC_BLOCK(ATOMIC_RESTORESTATE) {
    178a:	2f b7       	in	r18, 0x3f	; 63
    return 1;
}

static __inline__ uint8_t __iCliRetVal(void)
{
    cli();
    178c:	f8 94       	cli
		lMesPointer = (lMesPointer + 1) & (maxMessages - 1); // сдвинем указатель
    178e:	80 91 77 02 	lds	r24, 0x0277
    1792:	90 91 78 02 	lds	r25, 0x0278
    1796:	01 96       	adiw	r24, 0x01	; 1
    1798:	89 70       	andi	r24, 0x09	; 9
    179a:	99 27       	eor	r25, r25
    179c:	90 93 78 02 	sts	0x0278, r25
    17a0:	80 93 77 02 	sts	0x0277, r24

		msg = lMessage[lMesPointer].msg;
    17a4:	80 91 77 02 	lds	r24, 0x0277
    17a8:	90 91 78 02 	lds	r25, 0x0278
    17ac:	fc 01       	movw	r30, r24
    17ae:	ee 0f       	add	r30, r30
    17b0:	ff 1f       	adc	r31, r31
    17b2:	8e 0f       	add	r24, r30
    17b4:	9f 1f       	adc	r25, r31
    17b6:	fc 01       	movw	r30, r24
    17b8:	e7 57       	subi	r30, 0x77	; 119
    17ba:	fd 4f       	sbci	r31, 0xFD	; 253
    17bc:	c0 81       	ld	r28, Z
		par = lMessage[lMesPointer].par;
    17be:	80 91 77 02 	lds	r24, 0x0277
    17c2:	90 91 78 02 	lds	r25, 0x0278
    17c6:	fc 01       	movw	r30, r24
    17c8:	ee 0f       	add	r30, r30
    17ca:	ff 1f       	adc	r31, r31
    17cc:	8e 0f       	add	r24, r30
    17ce:	9f 1f       	adc	r25, r31
    17d0:	fc 01       	movw	r30, r24
    17d2:	e7 57       	subi	r30, 0x77	; 119
    17d4:	fd 4f       	sbci	r31, 0xFD	; 253
    17d6:	01 81       	ldd	r16, Z+1	; 0x01
    17d8:	12 81       	ldd	r17, Z+2	; 0x02
    (void)__s;
}

static __inline__ void __iRestore(const  uint8_t *__s)
{
    SREG = *__s;
    17da:	2f bf       	out	0x3f, r18	; 63
	}

	if (msg != 0 && numHandlers > 0) {
    17dc:	cc 23       	and	r28, r28
    17de:	39 f1       	breq	.+78     	; 0x182e <dispatchMessage+0xc4>
    17e0:	80 91 79 02 	lds	r24, 0x0279
    17e4:	88 23       	and	r24, r24
    17e6:	19 f1       	breq	.+70     	; 0x182e <dispatchMessage+0xc4>
		for (i = numHandlers - 1; i >= 0; i--) { // просматриваем обработчики с конца
    17e8:	d0 91 79 02 	lds	r29, 0x0279
    17ec:	d1 50       	subi	r29, 0x01	; 1
    17ee:	fa f0       	brmi	.+62     	; 0x182e <dispatchMessage+0xc4>
			if (lHandler[i].msg == msg) { // последний занесенный имеет приоритет
    17f0:	2d 2f       	mov	r18, r29
    17f2:	33 27       	eor	r19, r19
    17f4:	27 fd       	sbrc	r18, 7
    17f6:	30 95       	com	r19
    17f8:	f9 01       	movw	r30, r18
    17fa:	ee 0f       	add	r30, r30
    17fc:	ff 1f       	adc	r31, r31
    17fe:	e2 0f       	add	r30, r18
    1800:	f3 1f       	adc	r31, r19
    1802:	e6 58       	subi	r30, 0x86	; 134
    1804:	fd 4f       	sbci	r31, 0xFD	; 253
    1806:	80 81       	ld	r24, Z
    1808:	c8 13       	cpse	r28, r24
    180a:	0f c0       	rjmp	.+30     	; 0x182a <dispatchMessage+0xc0>
				res = lHandler[i].hnd(par); // вызываем обработчик
    180c:	f9 01       	movw	r30, r18
    180e:	ee 0f       	add	r30, r30
    1810:	ff 1f       	adc	r31, r31
    1812:	2e 0f       	add	r18, r30
    1814:	3f 1f       	adc	r19, r31
    1816:	f9 01       	movw	r30, r18
    1818:	e6 58       	subi	r30, 0x86	; 134
    181a:	fd 4f       	sbci	r31, 0xFD	; 253
    181c:	01 80       	ldd	r0, Z+1	; 0x01
    181e:	f2 81       	ldd	r31, Z+2	; 0x02
    1820:	e0 2d       	mov	r30, r0
    1822:	c8 01       	movw	r24, r16
    1824:	09 95       	icall
				if (res) { // если обработчик вернул 1, перываем обработку события
    1826:	81 11       	cpse	r24, r1
    1828:	02 c0       	rjmp	.+4      	; 0x182e <dispatchMessage+0xc4>
		msg = lMessage[lMesPointer].msg;
		par = lMessage[lMesPointer].par;
	}

	if (msg != 0 && numHandlers > 0) {
		for (i = numHandlers - 1; i >= 0; i--) { // просматриваем обработчики с конца
    182a:	d1 50       	subi	r29, 0x01	; 1
    182c:	0a f7       	brpl	.-62     	; 0x17f0 <dispatchMessage+0x86>
					break;
				}
			}
		}
	}
}
    182e:	df 91       	pop	r29
    1830:	cf 91       	pop	r28
    1832:	1f 91       	pop	r17
    1834:	0f 91       	pop	r16
    1836:	08 95       	ret

00001838 <setHandler>:
volatile uint16_t lMesPointer, hMesPointer; // указатели на начало и конец буфера

// установка обработчика события
// вызывается: setHandler(MSG_KEY_PRESS, &checkKey);
void setHandler(msg_num msg, handler hnd) {
	ATOMIC_BLOCK(ATOMIC_RESTORESTATE) {
    1838:	9f b7       	in	r25, 0x3f	; 63
    return 1;
}

static __inline__ uint8_t __iCliRetVal(void)
{
    cli();
    183a:	f8 94       	cli
		if (numHandlers < maxHandlers) {
    183c:	20 91 79 02 	lds	r18, 0x0279
    1840:	25 30       	cpi	r18, 0x05	; 5
    1842:	f0 f4       	brcc	.+60     	; 0x1880 <setHandler+0x48>
			lHandler[numHandlers].hnd = hnd; // и регистрирем обработчик
    1844:	20 91 79 02 	lds	r18, 0x0279
    1848:	30 e0       	ldi	r19, 0x00	; 0
    184a:	f9 01       	movw	r30, r18
    184c:	ee 0f       	add	r30, r30
    184e:	ff 1f       	adc	r31, r31
    1850:	2e 0f       	add	r18, r30
    1852:	3f 1f       	adc	r19, r31
    1854:	f9 01       	movw	r30, r18
    1856:	e6 58       	subi	r30, 0x86	; 134
    1858:	fd 4f       	sbci	r31, 0xFD	; 253
    185a:	72 83       	std	Z+2, r23	; 0x02
    185c:	61 83       	std	Z+1, r22	; 0x01
			lHandler[numHandlers].msg = msg;
    185e:	20 91 79 02 	lds	r18, 0x0279
    1862:	30 e0       	ldi	r19, 0x00	; 0
    1864:	f9 01       	movw	r30, r18
    1866:	ee 0f       	add	r30, r30
    1868:	ff 1f       	adc	r31, r31
    186a:	2e 0f       	add	r18, r30
    186c:	3f 1f       	adc	r19, r31
    186e:	f9 01       	movw	r30, r18
    1870:	e6 58       	subi	r30, 0x86	; 134
    1872:	fd 4f       	sbci	r31, 0xFD	; 253
    1874:	80 83       	st	Z, r24
			numHandlers++;
    1876:	80 91 79 02 	lds	r24, 0x0279
    187a:	8f 5f       	subi	r24, 0xFF	; 255
    187c:	80 93 79 02 	sts	0x0279, r24
    (void)__s;
}

static __inline__ void __iRestore(const  uint8_t *__s)
{
    SREG = *__s;
    1880:	9f bf       	out	0x3f, r25	; 63
    __asm__ volatile ("" ::: "memory");
    1882:	08 95       	ret

00001884 <killHandler>:

// снятие обработчика события
// вызывается: killHandler(MSG_KEY_PRESS, &checkKey);
// удаляет один последний обработчик.
void killHandler(msg_num msg, handler hnd) {
	if (numHandlers==0)
    1884:	90 91 79 02 	lds	r25, 0x0279
    1888:	99 23       	and	r25, r25
    188a:	09 f4       	brne	.+2      	; 0x188e <killHandler+0xa>
    188c:	5f c0       	rjmp	.+190    	; 0x194c <killHandler+0xc8>
		return;
	ATOMIC_BLOCK(ATOMIC_RESTORESTATE) {
    188e:	5f b7       	in	r21, 0x3f	; 63
    return 1;
}

static __inline__ uint8_t __iCliRetVal(void)
{
    cli();
    1890:	f8 94       	cli
		int8_t i, j;
		j = 0;
		for (i = numHandlers-1; i >= 0; i--) {
    1892:	40 91 79 02 	lds	r20, 0x0279
    1896:	41 50       	subi	r20, 0x01	; 1
    1898:	0a f4       	brpl	.+2      	; 0x189c <killHandler+0x18>
    189a:	57 c0       	rjmp	.+174    	; 0x194a <killHandler+0xc6>

			if ((lHandler[i].msg == msg) && (lHandler[i].hnd == hnd)) {
    189c:	24 2f       	mov	r18, r20
    189e:	33 27       	eor	r19, r19
    18a0:	27 fd       	sbrc	r18, 7
    18a2:	30 95       	com	r19
    18a4:	f9 01       	movw	r30, r18
    18a6:	ee 0f       	add	r30, r30
    18a8:	ff 1f       	adc	r31, r31
    18aa:	e2 0f       	add	r30, r18
    18ac:	f3 1f       	adc	r31, r19
    18ae:	e6 58       	subi	r30, 0x86	; 134
    18b0:	fd 4f       	sbci	r31, 0xFD	; 253
    18b2:	90 81       	ld	r25, Z
    18b4:	98 13       	cpse	r25, r24
    18b6:	46 c0       	rjmp	.+140    	; 0x1944 <killHandler+0xc0>
    18b8:	f9 01       	movw	r30, r18
    18ba:	ee 0f       	add	r30, r30
    18bc:	ff 1f       	adc	r31, r31
    18be:	2e 0f       	add	r18, r30
    18c0:	3f 1f       	adc	r19, r31
    18c2:	f9 01       	movw	r30, r18
    18c4:	e6 58       	subi	r30, 0x86	; 134
    18c6:	fd 4f       	sbci	r31, 0xFD	; 253
    18c8:	21 81       	ldd	r18, Z+1	; 0x01
    18ca:	32 81       	ldd	r19, Z+2	; 0x02
    18cc:	26 17       	cp	r18, r22
    18ce:	37 07       	cpc	r19, r23
    18d0:	c9 f5       	brne	.+114    	; 0x1944 <killHandler+0xc0>

				// сдвигаем все записи к началу списка, чтобы дырок не было
				for (j = i; j < numHandlers-1 ; j++) {
    18d2:	84 2f       	mov	r24, r20
    18d4:	99 27       	eor	r25, r25
    18d6:	87 fd       	sbrc	r24, 7
    18d8:	90 95       	com	r25
    18da:	20 91 79 02 	lds	r18, 0x0279
    18de:	30 e0       	ldi	r19, 0x00	; 0
    18e0:	21 50       	subi	r18, 0x01	; 1
    18e2:	31 09       	sbc	r19, r1
    18e4:	82 17       	cp	r24, r18
    18e6:	93 07       	cpc	r25, r19
    18e8:	3c f5       	brge	.+78     	; 0x1938 <killHandler+0xb4>
					lHandler[j].msg = lHandler[j + 1].msg;
    18ea:	9c 01       	movw	r18, r24
    18ec:	2f 5f       	subi	r18, 0xFF	; 255
    18ee:	3f 4f       	sbci	r19, 0xFF	; 255
    18f0:	d9 01       	movw	r26, r18
    18f2:	aa 0f       	add	r26, r26
    18f4:	bb 1f       	adc	r27, r27
    18f6:	a2 0f       	add	r26, r18
    18f8:	b3 1f       	adc	r27, r19
    18fa:	a6 58       	subi	r26, 0x86	; 134
    18fc:	bd 4f       	sbci	r27, 0xFD	; 253
    18fe:	2c 91       	ld	r18, X
    1900:	fc 01       	movw	r30, r24
    1902:	ee 0f       	add	r30, r30
    1904:	ff 1f       	adc	r31, r31
    1906:	8e 0f       	add	r24, r30
    1908:	9f 1f       	adc	r25, r31
    190a:	fc 01       	movw	r30, r24
    190c:	e6 58       	subi	r30, 0x86	; 134
    190e:	fd 4f       	sbci	r31, 0xFD	; 253
    1910:	20 83       	st	Z, r18
					lHandler[j].hnd = lHandler[j + 1].hnd;
    1912:	11 96       	adiw	r26, 0x01	; 1
    1914:	8d 91       	ld	r24, X+
    1916:	9c 91       	ld	r25, X
    1918:	12 97       	sbiw	r26, 0x02	; 2
    191a:	92 83       	std	Z+2, r25	; 0x02
    191c:	81 83       	std	Z+1, r24	; 0x01
		for (i = numHandlers-1; i >= 0; i--) {

			if ((lHandler[i].msg == msg) && (lHandler[i].hnd == hnd)) {

				// сдвигаем все записи к началу списка, чтобы дырок не было
				for (j = i; j < numHandlers-1 ; j++) {
    191e:	4f 5f       	subi	r20, 0xFF	; 255
    1920:	84 2f       	mov	r24, r20
    1922:	99 27       	eor	r25, r25
    1924:	87 fd       	sbrc	r24, 7
    1926:	90 95       	com	r25
    1928:	20 91 79 02 	lds	r18, 0x0279
    192c:	30 e0       	ldi	r19, 0x00	; 0
    192e:	21 50       	subi	r18, 0x01	; 1
    1930:	31 09       	sbc	r19, r1
    1932:	82 17       	cp	r24, r18
    1934:	93 07       	cpc	r25, r19
    1936:	cc f2       	brlt	.-78     	; 0x18ea <killHandler+0x66>
					lHandler[j].msg = lHandler[j + 1].msg;
					lHandler[j].hnd = lHandler[j + 1].hnd;
				}
				numHandlers--;
    1938:	80 91 79 02 	lds	r24, 0x0279
    193c:	81 50       	subi	r24, 0x01	; 1
    193e:	80 93 79 02 	sts	0x0279, r24
    1942:	03 c0       	rjmp	.+6      	; 0x194a <killHandler+0xc6>
	if (numHandlers==0)
		return;
	ATOMIC_BLOCK(ATOMIC_RESTORESTATE) {
		int8_t i, j;
		j = 0;
		for (i = numHandlers-1; i >= 0; i--) {
    1944:	41 50       	subi	r20, 0x01	; 1
    1946:	0a f0       	brmi	.+2      	; 0x194a <killHandler+0xc6>
    1948:	a9 cf       	rjmp	.-174    	; 0x189c <killHandler+0x18>
    (void)__s;
}

static __inline__ void __iRestore(const  uint8_t *__s)
{
    SREG = *__s;
    194a:	5f bf       	out	0x3f, r21	; 63
    __asm__ volatile ("" ::: "memory");
    194c:	08 95       	ret

0000194e <sendMessage>:

// занести событие в очередь
// пример вызова: sendMessage(MSG_KEY_PRESS, KEY_MENU)
void sendMessage(msg_num msg, msg_par par) {

	ATOMIC_BLOCK(ATOMIC_RESTORESTATE) {
    194e:	4f b7       	in	r20, 0x3f	; 63
    return 1;
}

static __inline__ uint8_t __iCliRetVal(void)
{
    cli();
    1950:	f8 94       	cli
		hMesPointer = (hMesPointer + 1) & (maxMessages - 1); // сдвигаем указатель головы
    1952:	20 91 75 02 	lds	r18, 0x0275
    1956:	30 91 76 02 	lds	r19, 0x0276
    195a:	2f 5f       	subi	r18, 0xFF	; 255
    195c:	3f 4f       	sbci	r19, 0xFF	; 255
    195e:	29 70       	andi	r18, 0x09	; 9
    1960:	33 27       	eor	r19, r19
    1962:	30 93 76 02 	sts	0x0276, r19
    1966:	20 93 75 02 	sts	0x0275, r18

		lMessage[hMesPointer].msg = msg; // заносим событие и параметр
    196a:	20 91 75 02 	lds	r18, 0x0275
    196e:	30 91 76 02 	lds	r19, 0x0276
    1972:	f9 01       	movw	r30, r18
    1974:	ee 0f       	add	r30, r30
    1976:	ff 1f       	adc	r31, r31
    1978:	2e 0f       	add	r18, r30
    197a:	3f 1f       	adc	r19, r31
    197c:	f9 01       	movw	r30, r18
    197e:	e7 57       	subi	r30, 0x77	; 119
    1980:	fd 4f       	sbci	r31, 0xFD	; 253
    1982:	80 83       	st	Z, r24
		lMessage[hMesPointer].par = par;
    1984:	80 91 75 02 	lds	r24, 0x0275
    1988:	90 91 76 02 	lds	r25, 0x0276
    198c:	fc 01       	movw	r30, r24
    198e:	ee 0f       	add	r30, r30
    1990:	ff 1f       	adc	r31, r31
    1992:	8e 0f       	add	r24, r30
    1994:	9f 1f       	adc	r25, r31
    1996:	fc 01       	movw	r30, r24
    1998:	e7 57       	subi	r30, 0x77	; 119
    199a:	fd 4f       	sbci	r31, 0xFD	; 253
    199c:	72 83       	std	Z+2, r23	; 0x02
    199e:	61 83       	std	Z+1, r22	; 0x01
		if (hMesPointer == lMesPointer) { // догнали начало очереди, убиваем необработанное сообытие
    19a0:	20 91 75 02 	lds	r18, 0x0275
    19a4:	30 91 76 02 	lds	r19, 0x0276
    19a8:	80 91 77 02 	lds	r24, 0x0277
    19ac:	90 91 78 02 	lds	r25, 0x0278
    19b0:	28 17       	cp	r18, r24
    19b2:	39 07       	cpc	r19, r25
    19b4:	59 f4       	brne	.+22     	; 0x19cc <sendMessage+0x7e>
			lMesPointer = (lMesPointer + 1) & (maxMessages - 1);
    19b6:	80 91 77 02 	lds	r24, 0x0277
    19ba:	90 91 78 02 	lds	r25, 0x0278
    19be:	01 96       	adiw	r24, 0x01	; 1
    19c0:	89 70       	andi	r24, 0x09	; 9
    19c2:	99 27       	eor	r25, r25
    19c4:	90 93 78 02 	sts	0x0278, r25
    19c8:	80 93 77 02 	sts	0x0277, r24
    (void)__s;
}

static __inline__ void __iRestore(const  uint8_t *__s)
{
    SREG = *__s;
    19cc:	4f bf       	out	0x3f, r20	; 63
		}
	}
	SetTask(dispatchMessage);
    19ce:	85 eb       	ldi	r24, 0xB5	; 181
    19d0:	9b e0       	ldi	r25, 0x0B	; 11
    19d2:	0e 94 71 0a 	call	0x14e2	; 0x14e2 <SetTask>
    19d6:	08 95       	ret

000019d8 <initMessages>:
		}
	}
}

void initMessages() {
	numHandlers = 0;
    19d8:	10 92 79 02 	sts	0x0279, r1
	lMesPointer = 0;
    19dc:	10 92 78 02 	sts	0x0278, r1
    19e0:	10 92 77 02 	sts	0x0277, r1
	hMesPointer = 0;
    19e4:	10 92 76 02 	sts	0x0276, r1
    19e8:	10 92 75 02 	sts	0x0275, r1
    19ec:	08 95       	ret

000019ee <__divmodhi4>:
    19ee:	97 fb       	bst	r25, 7
    19f0:	07 2e       	mov	r0, r23
    19f2:	16 f4       	brtc	.+4      	; 0x19f8 <__divmodhi4+0xa>
    19f4:	00 94       	com	r0
    19f6:	07 d0       	rcall	.+14     	; 0x1a06 <__divmodhi4_neg1>
    19f8:	77 fd       	sbrc	r23, 7
    19fa:	09 d0       	rcall	.+18     	; 0x1a0e <__divmodhi4_neg2>
    19fc:	0e 94 11 0d 	call	0x1a22	; 0x1a22 <__udivmodhi4>
    1a00:	07 fc       	sbrc	r0, 7
    1a02:	05 d0       	rcall	.+10     	; 0x1a0e <__divmodhi4_neg2>
    1a04:	3e f4       	brtc	.+14     	; 0x1a14 <__divmodhi4_exit>

00001a06 <__divmodhi4_neg1>:
    1a06:	90 95       	com	r25
    1a08:	81 95       	neg	r24
    1a0a:	9f 4f       	sbci	r25, 0xFF	; 255
    1a0c:	08 95       	ret

00001a0e <__divmodhi4_neg2>:
    1a0e:	70 95       	com	r23
    1a10:	61 95       	neg	r22
    1a12:	7f 4f       	sbci	r23, 0xFF	; 255

00001a14 <__divmodhi4_exit>:
    1a14:	08 95       	ret

00001a16 <__tablejump2__>:
    1a16:	ee 0f       	add	r30, r30
    1a18:	ff 1f       	adc	r31, r31

00001a1a <__tablejump__>:
    1a1a:	05 90       	lpm	r0, Z+
    1a1c:	f4 91       	lpm	r31, Z
    1a1e:	e0 2d       	mov	r30, r0
    1a20:	09 94       	ijmp

00001a22 <__udivmodhi4>:
    1a22:	aa 1b       	sub	r26, r26
    1a24:	bb 1b       	sub	r27, r27
    1a26:	51 e1       	ldi	r21, 0x11	; 17
    1a28:	07 c0       	rjmp	.+14     	; 0x1a38 <__udivmodhi4_ep>

00001a2a <__udivmodhi4_loop>:
    1a2a:	aa 1f       	adc	r26, r26
    1a2c:	bb 1f       	adc	r27, r27
    1a2e:	a6 17       	cp	r26, r22
    1a30:	b7 07       	cpc	r27, r23
    1a32:	10 f0       	brcs	.+4      	; 0x1a38 <__udivmodhi4_ep>
    1a34:	a6 1b       	sub	r26, r22
    1a36:	b7 0b       	sbc	r27, r23

00001a38 <__udivmodhi4_ep>:
    1a38:	88 1f       	adc	r24, r24
    1a3a:	99 1f       	adc	r25, r25
    1a3c:	5a 95       	dec	r21
    1a3e:	a9 f7       	brne	.-22     	; 0x1a2a <__udivmodhi4_loop>
    1a40:	80 95       	com	r24
    1a42:	90 95       	com	r25
    1a44:	bc 01       	movw	r22, r24
    1a46:	cd 01       	movw	r24, r26
    1a48:	08 95       	ret

00001a4a <sprintf>:
    1a4a:	ae e0       	ldi	r26, 0x0E	; 14
    1a4c:	b0 e0       	ldi	r27, 0x00	; 0
    1a4e:	eb e2       	ldi	r30, 0x2B	; 43
    1a50:	fd e0       	ldi	r31, 0x0D	; 13
    1a52:	0c 94 cd 0f 	jmp	0x1f9a	; 0x1f9a <__prologue_saves__+0x1c>
    1a56:	0d 89       	ldd	r16, Y+21	; 0x15
    1a58:	1e 89       	ldd	r17, Y+22	; 0x16
    1a5a:	86 e0       	ldi	r24, 0x06	; 6
    1a5c:	8c 83       	std	Y+4, r24	; 0x04
    1a5e:	1a 83       	std	Y+2, r17	; 0x02
    1a60:	09 83       	std	Y+1, r16	; 0x01
    1a62:	8f ef       	ldi	r24, 0xFF	; 255
    1a64:	9f e7       	ldi	r25, 0x7F	; 127
    1a66:	9e 83       	std	Y+6, r25	; 0x06
    1a68:	8d 83       	std	Y+5, r24	; 0x05
    1a6a:	ae 01       	movw	r20, r28
    1a6c:	47 5e       	subi	r20, 0xE7	; 231
    1a6e:	5f 4f       	sbci	r21, 0xFF	; 255
    1a70:	6f 89       	ldd	r22, Y+23	; 0x17
    1a72:	78 8d       	ldd	r23, Y+24	; 0x18
    1a74:	ce 01       	movw	r24, r28
    1a76:	01 96       	adiw	r24, 0x01	; 1
    1a78:	0e 94 47 0d 	call	0x1a8e	; 0x1a8e <vfprintf>
    1a7c:	ef 81       	ldd	r30, Y+7	; 0x07
    1a7e:	f8 85       	ldd	r31, Y+8	; 0x08
    1a80:	e0 0f       	add	r30, r16
    1a82:	f1 1f       	adc	r31, r17
    1a84:	10 82       	st	Z, r1
    1a86:	2e 96       	adiw	r28, 0x0e	; 14
    1a88:	e4 e0       	ldi	r30, 0x04	; 4
    1a8a:	0c 94 e9 0f 	jmp	0x1fd2	; 0x1fd2 <__epilogue_restores__+0x1c>

00001a8e <vfprintf>:
    1a8e:	ac e0       	ldi	r26, 0x0C	; 12
    1a90:	b0 e0       	ldi	r27, 0x00	; 0
    1a92:	ed e4       	ldi	r30, 0x4D	; 77
    1a94:	fd e0       	ldi	r31, 0x0D	; 13
    1a96:	0c 94 bf 0f 	jmp	0x1f7e	; 0x1f7e <__prologue_saves__>
    1a9a:	7c 01       	movw	r14, r24
    1a9c:	6b 01       	movw	r12, r22
    1a9e:	8a 01       	movw	r16, r20
    1aa0:	fc 01       	movw	r30, r24
    1aa2:	17 82       	std	Z+7, r1	; 0x07
    1aa4:	16 82       	std	Z+6, r1	; 0x06
    1aa6:	83 81       	ldd	r24, Z+3	; 0x03
    1aa8:	81 ff       	sbrs	r24, 1
    1aaa:	bd c1       	rjmp	.+890    	; 0x1e26 <vfprintf+0x398>
    1aac:	ce 01       	movw	r24, r28
    1aae:	01 96       	adiw	r24, 0x01	; 1
    1ab0:	4c 01       	movw	r8, r24
    1ab2:	f7 01       	movw	r30, r14
    1ab4:	93 81       	ldd	r25, Z+3	; 0x03
    1ab6:	f6 01       	movw	r30, r12
    1ab8:	93 fd       	sbrc	r25, 3
    1aba:	85 91       	lpm	r24, Z+
    1abc:	93 ff       	sbrs	r25, 3
    1abe:	81 91       	ld	r24, Z+
    1ac0:	6f 01       	movw	r12, r30
    1ac2:	88 23       	and	r24, r24
    1ac4:	09 f4       	brne	.+2      	; 0x1ac8 <vfprintf+0x3a>
    1ac6:	ab c1       	rjmp	.+854    	; 0x1e1e <vfprintf+0x390>
    1ac8:	85 32       	cpi	r24, 0x25	; 37
    1aca:	39 f4       	brne	.+14     	; 0x1ada <vfprintf+0x4c>
    1acc:	93 fd       	sbrc	r25, 3
    1ace:	85 91       	lpm	r24, Z+
    1ad0:	93 ff       	sbrs	r25, 3
    1ad2:	81 91       	ld	r24, Z+
    1ad4:	6f 01       	movw	r12, r30
    1ad6:	85 32       	cpi	r24, 0x25	; 37
    1ad8:	29 f4       	brne	.+10     	; 0x1ae4 <vfprintf+0x56>
    1ada:	b7 01       	movw	r22, r14
    1adc:	90 e0       	ldi	r25, 0x00	; 0
    1ade:	0e 94 2f 0f 	call	0x1e5e	; 0x1e5e <fputc>
    1ae2:	e7 cf       	rjmp	.-50     	; 0x1ab2 <vfprintf+0x24>
    1ae4:	51 2c       	mov	r5, r1
    1ae6:	31 2c       	mov	r3, r1
    1ae8:	20 e0       	ldi	r18, 0x00	; 0
    1aea:	20 32       	cpi	r18, 0x20	; 32
    1aec:	a0 f4       	brcc	.+40     	; 0x1b16 <vfprintf+0x88>
    1aee:	8b 32       	cpi	r24, 0x2B	; 43
    1af0:	69 f0       	breq	.+26     	; 0x1b0c <vfprintf+0x7e>
    1af2:	30 f4       	brcc	.+12     	; 0x1b00 <vfprintf+0x72>
    1af4:	80 32       	cpi	r24, 0x20	; 32
    1af6:	59 f0       	breq	.+22     	; 0x1b0e <vfprintf+0x80>
    1af8:	83 32       	cpi	r24, 0x23	; 35
    1afa:	69 f4       	brne	.+26     	; 0x1b16 <vfprintf+0x88>
    1afc:	20 61       	ori	r18, 0x10	; 16
    1afe:	2c c0       	rjmp	.+88     	; 0x1b58 <vfprintf+0xca>
    1b00:	8d 32       	cpi	r24, 0x2D	; 45
    1b02:	39 f0       	breq	.+14     	; 0x1b12 <vfprintf+0x84>
    1b04:	80 33       	cpi	r24, 0x30	; 48
    1b06:	39 f4       	brne	.+14     	; 0x1b16 <vfprintf+0x88>
    1b08:	21 60       	ori	r18, 0x01	; 1
    1b0a:	26 c0       	rjmp	.+76     	; 0x1b58 <vfprintf+0xca>
    1b0c:	22 60       	ori	r18, 0x02	; 2
    1b0e:	24 60       	ori	r18, 0x04	; 4
    1b10:	23 c0       	rjmp	.+70     	; 0x1b58 <vfprintf+0xca>
    1b12:	28 60       	ori	r18, 0x08	; 8
    1b14:	21 c0       	rjmp	.+66     	; 0x1b58 <vfprintf+0xca>
    1b16:	27 fd       	sbrc	r18, 7
    1b18:	27 c0       	rjmp	.+78     	; 0x1b68 <vfprintf+0xda>
    1b1a:	30 ed       	ldi	r19, 0xD0	; 208
    1b1c:	38 0f       	add	r19, r24
    1b1e:	3a 30       	cpi	r19, 0x0A	; 10
    1b20:	78 f4       	brcc	.+30     	; 0x1b40 <vfprintf+0xb2>
    1b22:	26 ff       	sbrs	r18, 6
    1b24:	06 c0       	rjmp	.+12     	; 0x1b32 <vfprintf+0xa4>
    1b26:	fa e0       	ldi	r31, 0x0A	; 10
    1b28:	5f 9e       	mul	r5, r31
    1b2a:	30 0d       	add	r19, r0
    1b2c:	11 24       	eor	r1, r1
    1b2e:	53 2e       	mov	r5, r19
    1b30:	13 c0       	rjmp	.+38     	; 0x1b58 <vfprintf+0xca>
    1b32:	8a e0       	ldi	r24, 0x0A	; 10
    1b34:	38 9e       	mul	r3, r24
    1b36:	30 0d       	add	r19, r0
    1b38:	11 24       	eor	r1, r1
    1b3a:	33 2e       	mov	r3, r19
    1b3c:	20 62       	ori	r18, 0x20	; 32
    1b3e:	0c c0       	rjmp	.+24     	; 0x1b58 <vfprintf+0xca>
    1b40:	8e 32       	cpi	r24, 0x2E	; 46
    1b42:	21 f4       	brne	.+8      	; 0x1b4c <vfprintf+0xbe>
    1b44:	26 fd       	sbrc	r18, 6
    1b46:	6b c1       	rjmp	.+726    	; 0x1e1e <vfprintf+0x390>
    1b48:	20 64       	ori	r18, 0x40	; 64
    1b4a:	06 c0       	rjmp	.+12     	; 0x1b58 <vfprintf+0xca>
    1b4c:	8c 36       	cpi	r24, 0x6C	; 108
    1b4e:	11 f4       	brne	.+4      	; 0x1b54 <vfprintf+0xc6>
    1b50:	20 68       	ori	r18, 0x80	; 128
    1b52:	02 c0       	rjmp	.+4      	; 0x1b58 <vfprintf+0xca>
    1b54:	88 36       	cpi	r24, 0x68	; 104
    1b56:	41 f4       	brne	.+16     	; 0x1b68 <vfprintf+0xda>
    1b58:	f6 01       	movw	r30, r12
    1b5a:	93 fd       	sbrc	r25, 3
    1b5c:	85 91       	lpm	r24, Z+
    1b5e:	93 ff       	sbrs	r25, 3
    1b60:	81 91       	ld	r24, Z+
    1b62:	6f 01       	movw	r12, r30
    1b64:	81 11       	cpse	r24, r1
    1b66:	c1 cf       	rjmp	.-126    	; 0x1aea <vfprintf+0x5c>
    1b68:	98 2f       	mov	r25, r24
    1b6a:	9f 7d       	andi	r25, 0xDF	; 223
    1b6c:	95 54       	subi	r25, 0x45	; 69
    1b6e:	93 30       	cpi	r25, 0x03	; 3
    1b70:	28 f4       	brcc	.+10     	; 0x1b7c <vfprintf+0xee>
    1b72:	0c 5f       	subi	r16, 0xFC	; 252
    1b74:	1f 4f       	sbci	r17, 0xFF	; 255
    1b76:	ff e3       	ldi	r31, 0x3F	; 63
    1b78:	f9 83       	std	Y+1, r31	; 0x01
    1b7a:	0d c0       	rjmp	.+26     	; 0x1b96 <vfprintf+0x108>
    1b7c:	83 36       	cpi	r24, 0x63	; 99
    1b7e:	31 f0       	breq	.+12     	; 0x1b8c <vfprintf+0xfe>
    1b80:	83 37       	cpi	r24, 0x73	; 115
    1b82:	71 f0       	breq	.+28     	; 0x1ba0 <vfprintf+0x112>
    1b84:	83 35       	cpi	r24, 0x53	; 83
    1b86:	09 f0       	breq	.+2      	; 0x1b8a <vfprintf+0xfc>
    1b88:	5b c0       	rjmp	.+182    	; 0x1c40 <vfprintf+0x1b2>
    1b8a:	22 c0       	rjmp	.+68     	; 0x1bd0 <vfprintf+0x142>
    1b8c:	f8 01       	movw	r30, r16
    1b8e:	80 81       	ld	r24, Z
    1b90:	89 83       	std	Y+1, r24	; 0x01
    1b92:	0e 5f       	subi	r16, 0xFE	; 254
    1b94:	1f 4f       	sbci	r17, 0xFF	; 255
    1b96:	44 24       	eor	r4, r4
    1b98:	43 94       	inc	r4
    1b9a:	51 2c       	mov	r5, r1
    1b9c:	54 01       	movw	r10, r8
    1b9e:	15 c0       	rjmp	.+42     	; 0x1bca <vfprintf+0x13c>
    1ba0:	38 01       	movw	r6, r16
    1ba2:	f2 e0       	ldi	r31, 0x02	; 2
    1ba4:	6f 0e       	add	r6, r31
    1ba6:	71 1c       	adc	r7, r1
    1ba8:	f8 01       	movw	r30, r16
    1baa:	a0 80       	ld	r10, Z
    1bac:	b1 80       	ldd	r11, Z+1	; 0x01
    1bae:	26 ff       	sbrs	r18, 6
    1bb0:	03 c0       	rjmp	.+6      	; 0x1bb8 <vfprintf+0x12a>
    1bb2:	65 2d       	mov	r22, r5
    1bb4:	70 e0       	ldi	r23, 0x00	; 0
    1bb6:	02 c0       	rjmp	.+4      	; 0x1bbc <vfprintf+0x12e>
    1bb8:	6f ef       	ldi	r22, 0xFF	; 255
    1bba:	7f ef       	ldi	r23, 0xFF	; 255
    1bbc:	c5 01       	movw	r24, r10
    1bbe:	2c 87       	std	Y+12, r18	; 0x0c
    1bc0:	0e 94 24 0f 	call	0x1e48	; 0x1e48 <strnlen>
    1bc4:	2c 01       	movw	r4, r24
    1bc6:	83 01       	movw	r16, r6
    1bc8:	2c 85       	ldd	r18, Y+12	; 0x0c
    1bca:	2f 77       	andi	r18, 0x7F	; 127
    1bcc:	22 2e       	mov	r2, r18
    1bce:	17 c0       	rjmp	.+46     	; 0x1bfe <vfprintf+0x170>
    1bd0:	38 01       	movw	r6, r16
    1bd2:	f2 e0       	ldi	r31, 0x02	; 2
    1bd4:	6f 0e       	add	r6, r31
    1bd6:	71 1c       	adc	r7, r1
    1bd8:	f8 01       	movw	r30, r16
    1bda:	a0 80       	ld	r10, Z
    1bdc:	b1 80       	ldd	r11, Z+1	; 0x01
    1bde:	26 ff       	sbrs	r18, 6
    1be0:	03 c0       	rjmp	.+6      	; 0x1be8 <vfprintf+0x15a>
    1be2:	65 2d       	mov	r22, r5
    1be4:	70 e0       	ldi	r23, 0x00	; 0
    1be6:	02 c0       	rjmp	.+4      	; 0x1bec <vfprintf+0x15e>
    1be8:	6f ef       	ldi	r22, 0xFF	; 255
    1bea:	7f ef       	ldi	r23, 0xFF	; 255
    1bec:	c5 01       	movw	r24, r10
    1bee:	2c 87       	std	Y+12, r18	; 0x0c
    1bf0:	0e 94 19 0f 	call	0x1e32	; 0x1e32 <strnlen_P>
    1bf4:	2c 01       	movw	r4, r24
    1bf6:	2c 85       	ldd	r18, Y+12	; 0x0c
    1bf8:	20 68       	ori	r18, 0x80	; 128
    1bfa:	22 2e       	mov	r2, r18
    1bfc:	83 01       	movw	r16, r6
    1bfe:	23 fc       	sbrc	r2, 3
    1c00:	1b c0       	rjmp	.+54     	; 0x1c38 <vfprintf+0x1aa>
    1c02:	83 2d       	mov	r24, r3
    1c04:	90 e0       	ldi	r25, 0x00	; 0
    1c06:	48 16       	cp	r4, r24
    1c08:	59 06       	cpc	r5, r25
    1c0a:	b0 f4       	brcc	.+44     	; 0x1c38 <vfprintf+0x1aa>
    1c0c:	b7 01       	movw	r22, r14
    1c0e:	80 e2       	ldi	r24, 0x20	; 32
    1c10:	90 e0       	ldi	r25, 0x00	; 0
    1c12:	0e 94 2f 0f 	call	0x1e5e	; 0x1e5e <fputc>
    1c16:	3a 94       	dec	r3
    1c18:	f4 cf       	rjmp	.-24     	; 0x1c02 <vfprintf+0x174>
    1c1a:	f5 01       	movw	r30, r10
    1c1c:	27 fc       	sbrc	r2, 7
    1c1e:	85 91       	lpm	r24, Z+
    1c20:	27 fe       	sbrs	r2, 7
    1c22:	81 91       	ld	r24, Z+
    1c24:	5f 01       	movw	r10, r30
    1c26:	b7 01       	movw	r22, r14
    1c28:	90 e0       	ldi	r25, 0x00	; 0
    1c2a:	0e 94 2f 0f 	call	0x1e5e	; 0x1e5e <fputc>
    1c2e:	31 10       	cpse	r3, r1
    1c30:	3a 94       	dec	r3
    1c32:	f1 e0       	ldi	r31, 0x01	; 1
    1c34:	4f 1a       	sub	r4, r31
    1c36:	51 08       	sbc	r5, r1
    1c38:	41 14       	cp	r4, r1
    1c3a:	51 04       	cpc	r5, r1
    1c3c:	71 f7       	brne	.-36     	; 0x1c1a <vfprintf+0x18c>
    1c3e:	e5 c0       	rjmp	.+458    	; 0x1e0a <vfprintf+0x37c>
    1c40:	84 36       	cpi	r24, 0x64	; 100
    1c42:	11 f0       	breq	.+4      	; 0x1c48 <vfprintf+0x1ba>
    1c44:	89 36       	cpi	r24, 0x69	; 105
    1c46:	39 f5       	brne	.+78     	; 0x1c96 <vfprintf+0x208>
    1c48:	f8 01       	movw	r30, r16
    1c4a:	27 ff       	sbrs	r18, 7
    1c4c:	07 c0       	rjmp	.+14     	; 0x1c5c <vfprintf+0x1ce>
    1c4e:	60 81       	ld	r22, Z
    1c50:	71 81       	ldd	r23, Z+1	; 0x01
    1c52:	82 81       	ldd	r24, Z+2	; 0x02
    1c54:	93 81       	ldd	r25, Z+3	; 0x03
    1c56:	0c 5f       	subi	r16, 0xFC	; 252
    1c58:	1f 4f       	sbci	r17, 0xFF	; 255
    1c5a:	08 c0       	rjmp	.+16     	; 0x1c6c <vfprintf+0x1de>
    1c5c:	60 81       	ld	r22, Z
    1c5e:	71 81       	ldd	r23, Z+1	; 0x01
    1c60:	88 27       	eor	r24, r24
    1c62:	77 fd       	sbrc	r23, 7
    1c64:	80 95       	com	r24
    1c66:	98 2f       	mov	r25, r24
    1c68:	0e 5f       	subi	r16, 0xFE	; 254
    1c6a:	1f 4f       	sbci	r17, 0xFF	; 255
    1c6c:	2f 76       	andi	r18, 0x6F	; 111
    1c6e:	b2 2e       	mov	r11, r18
    1c70:	97 ff       	sbrs	r25, 7
    1c72:	09 c0       	rjmp	.+18     	; 0x1c86 <vfprintf+0x1f8>
    1c74:	90 95       	com	r25
    1c76:	80 95       	com	r24
    1c78:	70 95       	com	r23
    1c7a:	61 95       	neg	r22
    1c7c:	7f 4f       	sbci	r23, 0xFF	; 255
    1c7e:	8f 4f       	sbci	r24, 0xFF	; 255
    1c80:	9f 4f       	sbci	r25, 0xFF	; 255
    1c82:	20 68       	ori	r18, 0x80	; 128
    1c84:	b2 2e       	mov	r11, r18
    1c86:	2a e0       	ldi	r18, 0x0A	; 10
    1c88:	30 e0       	ldi	r19, 0x00	; 0
    1c8a:	a4 01       	movw	r20, r8
    1c8c:	0e 94 61 0f 	call	0x1ec2	; 0x1ec2 <__ultoa_invert>
    1c90:	a8 2e       	mov	r10, r24
    1c92:	a8 18       	sub	r10, r8
    1c94:	44 c0       	rjmp	.+136    	; 0x1d1e <vfprintf+0x290>
    1c96:	85 37       	cpi	r24, 0x75	; 117
    1c98:	29 f4       	brne	.+10     	; 0x1ca4 <vfprintf+0x216>
    1c9a:	2f 7e       	andi	r18, 0xEF	; 239
    1c9c:	b2 2e       	mov	r11, r18
    1c9e:	2a e0       	ldi	r18, 0x0A	; 10
    1ca0:	30 e0       	ldi	r19, 0x00	; 0
    1ca2:	25 c0       	rjmp	.+74     	; 0x1cee <vfprintf+0x260>
    1ca4:	f2 2f       	mov	r31, r18
    1ca6:	f9 7f       	andi	r31, 0xF9	; 249
    1ca8:	bf 2e       	mov	r11, r31
    1caa:	8f 36       	cpi	r24, 0x6F	; 111
    1cac:	c1 f0       	breq	.+48     	; 0x1cde <vfprintf+0x250>
    1cae:	18 f4       	brcc	.+6      	; 0x1cb6 <vfprintf+0x228>
    1cb0:	88 35       	cpi	r24, 0x58	; 88
    1cb2:	79 f0       	breq	.+30     	; 0x1cd2 <vfprintf+0x244>
    1cb4:	b4 c0       	rjmp	.+360    	; 0x1e1e <vfprintf+0x390>
    1cb6:	80 37       	cpi	r24, 0x70	; 112
    1cb8:	19 f0       	breq	.+6      	; 0x1cc0 <vfprintf+0x232>
    1cba:	88 37       	cpi	r24, 0x78	; 120
    1cbc:	21 f0       	breq	.+8      	; 0x1cc6 <vfprintf+0x238>
    1cbe:	af c0       	rjmp	.+350    	; 0x1e1e <vfprintf+0x390>
    1cc0:	2f 2f       	mov	r18, r31
    1cc2:	20 61       	ori	r18, 0x10	; 16
    1cc4:	b2 2e       	mov	r11, r18
    1cc6:	b4 fe       	sbrs	r11, 4
    1cc8:	0d c0       	rjmp	.+26     	; 0x1ce4 <vfprintf+0x256>
    1cca:	8b 2d       	mov	r24, r11
    1ccc:	84 60       	ori	r24, 0x04	; 4
    1cce:	b8 2e       	mov	r11, r24
    1cd0:	09 c0       	rjmp	.+18     	; 0x1ce4 <vfprintf+0x256>
    1cd2:	24 ff       	sbrs	r18, 4
    1cd4:	0a c0       	rjmp	.+20     	; 0x1cea <vfprintf+0x25c>
    1cd6:	9f 2f       	mov	r25, r31
    1cd8:	96 60       	ori	r25, 0x06	; 6
    1cda:	b9 2e       	mov	r11, r25
    1cdc:	06 c0       	rjmp	.+12     	; 0x1cea <vfprintf+0x25c>
    1cde:	28 e0       	ldi	r18, 0x08	; 8
    1ce0:	30 e0       	ldi	r19, 0x00	; 0
    1ce2:	05 c0       	rjmp	.+10     	; 0x1cee <vfprintf+0x260>
    1ce4:	20 e1       	ldi	r18, 0x10	; 16
    1ce6:	30 e0       	ldi	r19, 0x00	; 0
    1ce8:	02 c0       	rjmp	.+4      	; 0x1cee <vfprintf+0x260>
    1cea:	20 e1       	ldi	r18, 0x10	; 16
    1cec:	32 e0       	ldi	r19, 0x02	; 2
    1cee:	f8 01       	movw	r30, r16
    1cf0:	b7 fe       	sbrs	r11, 7
    1cf2:	07 c0       	rjmp	.+14     	; 0x1d02 <vfprintf+0x274>
    1cf4:	60 81       	ld	r22, Z
    1cf6:	71 81       	ldd	r23, Z+1	; 0x01
    1cf8:	82 81       	ldd	r24, Z+2	; 0x02
    1cfa:	93 81       	ldd	r25, Z+3	; 0x03
    1cfc:	0c 5f       	subi	r16, 0xFC	; 252
    1cfe:	1f 4f       	sbci	r17, 0xFF	; 255
    1d00:	06 c0       	rjmp	.+12     	; 0x1d0e <vfprintf+0x280>
    1d02:	60 81       	ld	r22, Z
    1d04:	71 81       	ldd	r23, Z+1	; 0x01
    1d06:	80 e0       	ldi	r24, 0x00	; 0
    1d08:	90 e0       	ldi	r25, 0x00	; 0
    1d0a:	0e 5f       	subi	r16, 0xFE	; 254
    1d0c:	1f 4f       	sbci	r17, 0xFF	; 255
    1d0e:	a4 01       	movw	r20, r8
    1d10:	0e 94 61 0f 	call	0x1ec2	; 0x1ec2 <__ultoa_invert>
    1d14:	a8 2e       	mov	r10, r24
    1d16:	a8 18       	sub	r10, r8
    1d18:	fb 2d       	mov	r31, r11
    1d1a:	ff 77       	andi	r31, 0x7F	; 127
    1d1c:	bf 2e       	mov	r11, r31
    1d1e:	b6 fe       	sbrs	r11, 6
    1d20:	0b c0       	rjmp	.+22     	; 0x1d38 <vfprintf+0x2aa>
    1d22:	2b 2d       	mov	r18, r11
    1d24:	2e 7f       	andi	r18, 0xFE	; 254
    1d26:	a5 14       	cp	r10, r5
    1d28:	50 f4       	brcc	.+20     	; 0x1d3e <vfprintf+0x2b0>
    1d2a:	b4 fe       	sbrs	r11, 4
    1d2c:	0a c0       	rjmp	.+20     	; 0x1d42 <vfprintf+0x2b4>
    1d2e:	b2 fc       	sbrc	r11, 2
    1d30:	08 c0       	rjmp	.+16     	; 0x1d42 <vfprintf+0x2b4>
    1d32:	2b 2d       	mov	r18, r11
    1d34:	2e 7e       	andi	r18, 0xEE	; 238
    1d36:	05 c0       	rjmp	.+10     	; 0x1d42 <vfprintf+0x2b4>
    1d38:	7a 2c       	mov	r7, r10
    1d3a:	2b 2d       	mov	r18, r11
    1d3c:	03 c0       	rjmp	.+6      	; 0x1d44 <vfprintf+0x2b6>
    1d3e:	7a 2c       	mov	r7, r10
    1d40:	01 c0       	rjmp	.+2      	; 0x1d44 <vfprintf+0x2b6>
    1d42:	75 2c       	mov	r7, r5
    1d44:	24 ff       	sbrs	r18, 4
    1d46:	0d c0       	rjmp	.+26     	; 0x1d62 <vfprintf+0x2d4>
    1d48:	fe 01       	movw	r30, r28
    1d4a:	ea 0d       	add	r30, r10
    1d4c:	f1 1d       	adc	r31, r1
    1d4e:	80 81       	ld	r24, Z
    1d50:	80 33       	cpi	r24, 0x30	; 48
    1d52:	11 f4       	brne	.+4      	; 0x1d58 <vfprintf+0x2ca>
    1d54:	29 7e       	andi	r18, 0xE9	; 233
    1d56:	09 c0       	rjmp	.+18     	; 0x1d6a <vfprintf+0x2dc>
    1d58:	22 ff       	sbrs	r18, 2
    1d5a:	06 c0       	rjmp	.+12     	; 0x1d68 <vfprintf+0x2da>
    1d5c:	73 94       	inc	r7
    1d5e:	73 94       	inc	r7
    1d60:	04 c0       	rjmp	.+8      	; 0x1d6a <vfprintf+0x2dc>
    1d62:	82 2f       	mov	r24, r18
    1d64:	86 78       	andi	r24, 0x86	; 134
    1d66:	09 f0       	breq	.+2      	; 0x1d6a <vfprintf+0x2dc>
    1d68:	73 94       	inc	r7
    1d6a:	23 fd       	sbrc	r18, 3
    1d6c:	13 c0       	rjmp	.+38     	; 0x1d94 <vfprintf+0x306>
    1d6e:	20 ff       	sbrs	r18, 0
    1d70:	06 c0       	rjmp	.+12     	; 0x1d7e <vfprintf+0x2f0>
    1d72:	5a 2c       	mov	r5, r10
    1d74:	73 14       	cp	r7, r3
    1d76:	18 f4       	brcc	.+6      	; 0x1d7e <vfprintf+0x2f0>
    1d78:	53 0c       	add	r5, r3
    1d7a:	57 18       	sub	r5, r7
    1d7c:	73 2c       	mov	r7, r3
    1d7e:	73 14       	cp	r7, r3
    1d80:	68 f4       	brcc	.+26     	; 0x1d9c <vfprintf+0x30e>
    1d82:	b7 01       	movw	r22, r14
    1d84:	80 e2       	ldi	r24, 0x20	; 32
    1d86:	90 e0       	ldi	r25, 0x00	; 0
    1d88:	2c 87       	std	Y+12, r18	; 0x0c
    1d8a:	0e 94 2f 0f 	call	0x1e5e	; 0x1e5e <fputc>
    1d8e:	73 94       	inc	r7
    1d90:	2c 85       	ldd	r18, Y+12	; 0x0c
    1d92:	f5 cf       	rjmp	.-22     	; 0x1d7e <vfprintf+0x2f0>
    1d94:	73 14       	cp	r7, r3
    1d96:	10 f4       	brcc	.+4      	; 0x1d9c <vfprintf+0x30e>
    1d98:	37 18       	sub	r3, r7
    1d9a:	01 c0       	rjmp	.+2      	; 0x1d9e <vfprintf+0x310>
    1d9c:	31 2c       	mov	r3, r1
    1d9e:	24 ff       	sbrs	r18, 4
    1da0:	12 c0       	rjmp	.+36     	; 0x1dc6 <vfprintf+0x338>
    1da2:	b7 01       	movw	r22, r14
    1da4:	80 e3       	ldi	r24, 0x30	; 48
    1da6:	90 e0       	ldi	r25, 0x00	; 0
    1da8:	2c 87       	std	Y+12, r18	; 0x0c
    1daa:	0e 94 2f 0f 	call	0x1e5e	; 0x1e5e <fputc>
    1dae:	2c 85       	ldd	r18, Y+12	; 0x0c
    1db0:	22 ff       	sbrs	r18, 2
    1db2:	17 c0       	rjmp	.+46     	; 0x1de2 <vfprintf+0x354>
    1db4:	21 ff       	sbrs	r18, 1
    1db6:	03 c0       	rjmp	.+6      	; 0x1dbe <vfprintf+0x330>
    1db8:	88 e5       	ldi	r24, 0x58	; 88
    1dba:	90 e0       	ldi	r25, 0x00	; 0
    1dbc:	02 c0       	rjmp	.+4      	; 0x1dc2 <vfprintf+0x334>
    1dbe:	88 e7       	ldi	r24, 0x78	; 120
    1dc0:	90 e0       	ldi	r25, 0x00	; 0
    1dc2:	b7 01       	movw	r22, r14
    1dc4:	0c c0       	rjmp	.+24     	; 0x1dde <vfprintf+0x350>
    1dc6:	82 2f       	mov	r24, r18
    1dc8:	86 78       	andi	r24, 0x86	; 134
    1dca:	59 f0       	breq	.+22     	; 0x1de2 <vfprintf+0x354>
    1dcc:	21 fd       	sbrc	r18, 1
    1dce:	02 c0       	rjmp	.+4      	; 0x1dd4 <vfprintf+0x346>
    1dd0:	80 e2       	ldi	r24, 0x20	; 32
    1dd2:	01 c0       	rjmp	.+2      	; 0x1dd6 <vfprintf+0x348>
    1dd4:	8b e2       	ldi	r24, 0x2B	; 43
    1dd6:	27 fd       	sbrc	r18, 7
    1dd8:	8d e2       	ldi	r24, 0x2D	; 45
    1dda:	b7 01       	movw	r22, r14
    1ddc:	90 e0       	ldi	r25, 0x00	; 0
    1dde:	0e 94 2f 0f 	call	0x1e5e	; 0x1e5e <fputc>
    1de2:	a5 14       	cp	r10, r5
    1de4:	38 f4       	brcc	.+14     	; 0x1df4 <vfprintf+0x366>
    1de6:	b7 01       	movw	r22, r14
    1de8:	80 e3       	ldi	r24, 0x30	; 48
    1dea:	90 e0       	ldi	r25, 0x00	; 0
    1dec:	0e 94 2f 0f 	call	0x1e5e	; 0x1e5e <fputc>
    1df0:	5a 94       	dec	r5
    1df2:	f7 cf       	rjmp	.-18     	; 0x1de2 <vfprintf+0x354>
    1df4:	aa 94       	dec	r10
    1df6:	f4 01       	movw	r30, r8
    1df8:	ea 0d       	add	r30, r10
    1dfa:	f1 1d       	adc	r31, r1
    1dfc:	80 81       	ld	r24, Z
    1dfe:	b7 01       	movw	r22, r14
    1e00:	90 e0       	ldi	r25, 0x00	; 0
    1e02:	0e 94 2f 0f 	call	0x1e5e	; 0x1e5e <fputc>
    1e06:	a1 10       	cpse	r10, r1
    1e08:	f5 cf       	rjmp	.-22     	; 0x1df4 <vfprintf+0x366>
    1e0a:	33 20       	and	r3, r3
    1e0c:	09 f4       	brne	.+2      	; 0x1e10 <vfprintf+0x382>
    1e0e:	51 ce       	rjmp	.-862    	; 0x1ab2 <vfprintf+0x24>
    1e10:	b7 01       	movw	r22, r14
    1e12:	80 e2       	ldi	r24, 0x20	; 32
    1e14:	90 e0       	ldi	r25, 0x00	; 0
    1e16:	0e 94 2f 0f 	call	0x1e5e	; 0x1e5e <fputc>
    1e1a:	3a 94       	dec	r3
    1e1c:	f6 cf       	rjmp	.-20     	; 0x1e0a <vfprintf+0x37c>
    1e1e:	f7 01       	movw	r30, r14
    1e20:	86 81       	ldd	r24, Z+6	; 0x06
    1e22:	97 81       	ldd	r25, Z+7	; 0x07
    1e24:	02 c0       	rjmp	.+4      	; 0x1e2a <vfprintf+0x39c>
    1e26:	8f ef       	ldi	r24, 0xFF	; 255
    1e28:	9f ef       	ldi	r25, 0xFF	; 255
    1e2a:	2c 96       	adiw	r28, 0x0c	; 12
    1e2c:	e2 e1       	ldi	r30, 0x12	; 18
    1e2e:	0c 94 db 0f 	jmp	0x1fb6	; 0x1fb6 <__epilogue_restores__>

00001e32 <strnlen_P>:
    1e32:	fc 01       	movw	r30, r24
    1e34:	05 90       	lpm	r0, Z+
    1e36:	61 50       	subi	r22, 0x01	; 1
    1e38:	70 40       	sbci	r23, 0x00	; 0
    1e3a:	01 10       	cpse	r0, r1
    1e3c:	d8 f7       	brcc	.-10     	; 0x1e34 <strnlen_P+0x2>
    1e3e:	80 95       	com	r24
    1e40:	90 95       	com	r25
    1e42:	8e 0f       	add	r24, r30
    1e44:	9f 1f       	adc	r25, r31
    1e46:	08 95       	ret

00001e48 <strnlen>:
    1e48:	fc 01       	movw	r30, r24
    1e4a:	61 50       	subi	r22, 0x01	; 1
    1e4c:	70 40       	sbci	r23, 0x00	; 0
    1e4e:	01 90       	ld	r0, Z+
    1e50:	01 10       	cpse	r0, r1
    1e52:	d8 f7       	brcc	.-10     	; 0x1e4a <strnlen+0x2>
    1e54:	80 95       	com	r24
    1e56:	90 95       	com	r25
    1e58:	8e 0f       	add	r24, r30
    1e5a:	9f 1f       	adc	r25, r31
    1e5c:	08 95       	ret

00001e5e <fputc>:
    1e5e:	0f 93       	push	r16
    1e60:	1f 93       	push	r17
    1e62:	cf 93       	push	r28
    1e64:	df 93       	push	r29
    1e66:	18 2f       	mov	r17, r24
    1e68:	09 2f       	mov	r16, r25
    1e6a:	eb 01       	movw	r28, r22
    1e6c:	8b 81       	ldd	r24, Y+3	; 0x03
    1e6e:	81 fd       	sbrc	r24, 1
    1e70:	03 c0       	rjmp	.+6      	; 0x1e78 <fputc+0x1a>
    1e72:	8f ef       	ldi	r24, 0xFF	; 255
    1e74:	9f ef       	ldi	r25, 0xFF	; 255
    1e76:	20 c0       	rjmp	.+64     	; 0x1eb8 <fputc+0x5a>
    1e78:	82 ff       	sbrs	r24, 2
    1e7a:	10 c0       	rjmp	.+32     	; 0x1e9c <fputc+0x3e>
    1e7c:	4e 81       	ldd	r20, Y+6	; 0x06
    1e7e:	5f 81       	ldd	r21, Y+7	; 0x07
    1e80:	2c 81       	ldd	r18, Y+4	; 0x04
    1e82:	3d 81       	ldd	r19, Y+5	; 0x05
    1e84:	42 17       	cp	r20, r18
    1e86:	53 07       	cpc	r21, r19
    1e88:	7c f4       	brge	.+30     	; 0x1ea8 <fputc+0x4a>
    1e8a:	e8 81       	ld	r30, Y
    1e8c:	f9 81       	ldd	r31, Y+1	; 0x01
    1e8e:	9f 01       	movw	r18, r30
    1e90:	2f 5f       	subi	r18, 0xFF	; 255
    1e92:	3f 4f       	sbci	r19, 0xFF	; 255
    1e94:	39 83       	std	Y+1, r19	; 0x01
    1e96:	28 83       	st	Y, r18
    1e98:	10 83       	st	Z, r17
    1e9a:	06 c0       	rjmp	.+12     	; 0x1ea8 <fputc+0x4a>
    1e9c:	e8 85       	ldd	r30, Y+8	; 0x08
    1e9e:	f9 85       	ldd	r31, Y+9	; 0x09
    1ea0:	81 2f       	mov	r24, r17
    1ea2:	09 95       	icall
    1ea4:	89 2b       	or	r24, r25
    1ea6:	29 f7       	brne	.-54     	; 0x1e72 <fputc+0x14>
    1ea8:	2e 81       	ldd	r18, Y+6	; 0x06
    1eaa:	3f 81       	ldd	r19, Y+7	; 0x07
    1eac:	2f 5f       	subi	r18, 0xFF	; 255
    1eae:	3f 4f       	sbci	r19, 0xFF	; 255
    1eb0:	3f 83       	std	Y+7, r19	; 0x07
    1eb2:	2e 83       	std	Y+6, r18	; 0x06
    1eb4:	81 2f       	mov	r24, r17
    1eb6:	90 2f       	mov	r25, r16
    1eb8:	df 91       	pop	r29
    1eba:	cf 91       	pop	r28
    1ebc:	1f 91       	pop	r17
    1ebe:	0f 91       	pop	r16
    1ec0:	08 95       	ret

00001ec2 <__ultoa_invert>:
    1ec2:	fa 01       	movw	r30, r20
    1ec4:	aa 27       	eor	r26, r26
    1ec6:	28 30       	cpi	r18, 0x08	; 8
    1ec8:	51 f1       	breq	.+84     	; 0x1f1e <__ultoa_invert+0x5c>
    1eca:	20 31       	cpi	r18, 0x10	; 16
    1ecc:	81 f1       	breq	.+96     	; 0x1f2e <__ultoa_invert+0x6c>
    1ece:	e8 94       	clt
    1ed0:	6f 93       	push	r22
    1ed2:	6e 7f       	andi	r22, 0xFE	; 254
    1ed4:	6e 5f       	subi	r22, 0xFE	; 254
    1ed6:	7f 4f       	sbci	r23, 0xFF	; 255
    1ed8:	8f 4f       	sbci	r24, 0xFF	; 255
    1eda:	9f 4f       	sbci	r25, 0xFF	; 255
    1edc:	af 4f       	sbci	r26, 0xFF	; 255
    1ede:	b1 e0       	ldi	r27, 0x01	; 1
    1ee0:	3e d0       	rcall	.+124    	; 0x1f5e <__ultoa_invert+0x9c>
    1ee2:	b4 e0       	ldi	r27, 0x04	; 4
    1ee4:	3c d0       	rcall	.+120    	; 0x1f5e <__ultoa_invert+0x9c>
    1ee6:	67 0f       	add	r22, r23
    1ee8:	78 1f       	adc	r23, r24
    1eea:	89 1f       	adc	r24, r25
    1eec:	9a 1f       	adc	r25, r26
    1eee:	a1 1d       	adc	r26, r1
    1ef0:	68 0f       	add	r22, r24
    1ef2:	79 1f       	adc	r23, r25
    1ef4:	8a 1f       	adc	r24, r26
    1ef6:	91 1d       	adc	r25, r1
    1ef8:	a1 1d       	adc	r26, r1
    1efa:	6a 0f       	add	r22, r26
    1efc:	71 1d       	adc	r23, r1
    1efe:	81 1d       	adc	r24, r1
    1f00:	91 1d       	adc	r25, r1
    1f02:	a1 1d       	adc	r26, r1
    1f04:	20 d0       	rcall	.+64     	; 0x1f46 <__ultoa_invert+0x84>
    1f06:	09 f4       	brne	.+2      	; 0x1f0a <__ultoa_invert+0x48>
    1f08:	68 94       	set
    1f0a:	3f 91       	pop	r19
    1f0c:	2a e0       	ldi	r18, 0x0A	; 10
    1f0e:	26 9f       	mul	r18, r22
    1f10:	11 24       	eor	r1, r1
    1f12:	30 19       	sub	r19, r0
    1f14:	30 5d       	subi	r19, 0xD0	; 208
    1f16:	31 93       	st	Z+, r19
    1f18:	de f6       	brtc	.-74     	; 0x1ed0 <__ultoa_invert+0xe>
    1f1a:	cf 01       	movw	r24, r30
    1f1c:	08 95       	ret
    1f1e:	46 2f       	mov	r20, r22
    1f20:	47 70       	andi	r20, 0x07	; 7
    1f22:	40 5d       	subi	r20, 0xD0	; 208
    1f24:	41 93       	st	Z+, r20
    1f26:	b3 e0       	ldi	r27, 0x03	; 3
    1f28:	0f d0       	rcall	.+30     	; 0x1f48 <__ultoa_invert+0x86>
    1f2a:	c9 f7       	brne	.-14     	; 0x1f1e <__ultoa_invert+0x5c>
    1f2c:	f6 cf       	rjmp	.-20     	; 0x1f1a <__ultoa_invert+0x58>
    1f2e:	46 2f       	mov	r20, r22
    1f30:	4f 70       	andi	r20, 0x0F	; 15
    1f32:	40 5d       	subi	r20, 0xD0	; 208
    1f34:	4a 33       	cpi	r20, 0x3A	; 58
    1f36:	18 f0       	brcs	.+6      	; 0x1f3e <__ultoa_invert+0x7c>
    1f38:	49 5d       	subi	r20, 0xD9	; 217
    1f3a:	31 fd       	sbrc	r19, 1
    1f3c:	40 52       	subi	r20, 0x20	; 32
    1f3e:	41 93       	st	Z+, r20
    1f40:	02 d0       	rcall	.+4      	; 0x1f46 <__ultoa_invert+0x84>
    1f42:	a9 f7       	brne	.-22     	; 0x1f2e <__ultoa_invert+0x6c>
    1f44:	ea cf       	rjmp	.-44     	; 0x1f1a <__ultoa_invert+0x58>
    1f46:	b4 e0       	ldi	r27, 0x04	; 4
    1f48:	a6 95       	lsr	r26
    1f4a:	97 95       	ror	r25
    1f4c:	87 95       	ror	r24
    1f4e:	77 95       	ror	r23
    1f50:	67 95       	ror	r22
    1f52:	ba 95       	dec	r27
    1f54:	c9 f7       	brne	.-14     	; 0x1f48 <__ultoa_invert+0x86>
    1f56:	00 97       	sbiw	r24, 0x00	; 0
    1f58:	61 05       	cpc	r22, r1
    1f5a:	71 05       	cpc	r23, r1
    1f5c:	08 95       	ret
    1f5e:	9b 01       	movw	r18, r22
    1f60:	ac 01       	movw	r20, r24
    1f62:	0a 2e       	mov	r0, r26
    1f64:	06 94       	lsr	r0
    1f66:	57 95       	ror	r21
    1f68:	47 95       	ror	r20
    1f6a:	37 95       	ror	r19
    1f6c:	27 95       	ror	r18
    1f6e:	ba 95       	dec	r27
    1f70:	c9 f7       	brne	.-14     	; 0x1f64 <__ultoa_invert+0xa2>
    1f72:	62 0f       	add	r22, r18
    1f74:	73 1f       	adc	r23, r19
    1f76:	84 1f       	adc	r24, r20
    1f78:	95 1f       	adc	r25, r21
    1f7a:	a0 1d       	adc	r26, r0
    1f7c:	08 95       	ret

00001f7e <__prologue_saves__>:
    1f7e:	2f 92       	push	r2
    1f80:	3f 92       	push	r3
    1f82:	4f 92       	push	r4
    1f84:	5f 92       	push	r5
    1f86:	6f 92       	push	r6
    1f88:	7f 92       	push	r7
    1f8a:	8f 92       	push	r8
    1f8c:	9f 92       	push	r9
    1f8e:	af 92       	push	r10
    1f90:	bf 92       	push	r11
    1f92:	cf 92       	push	r12
    1f94:	df 92       	push	r13
    1f96:	ef 92       	push	r14
    1f98:	ff 92       	push	r15
    1f9a:	0f 93       	push	r16
    1f9c:	1f 93       	push	r17
    1f9e:	cf 93       	push	r28
    1fa0:	df 93       	push	r29
    1fa2:	cd b7       	in	r28, 0x3d	; 61
    1fa4:	de b7       	in	r29, 0x3e	; 62
    1fa6:	ca 1b       	sub	r28, r26
    1fa8:	db 0b       	sbc	r29, r27
    1faa:	0f b6       	in	r0, 0x3f	; 63
    1fac:	f8 94       	cli
    1fae:	de bf       	out	0x3e, r29	; 62
    1fb0:	0f be       	out	0x3f, r0	; 63
    1fb2:	cd bf       	out	0x3d, r28	; 61
    1fb4:	09 94       	ijmp

00001fb6 <__epilogue_restores__>:
    1fb6:	2a 88       	ldd	r2, Y+18	; 0x12
    1fb8:	39 88       	ldd	r3, Y+17	; 0x11
    1fba:	48 88       	ldd	r4, Y+16	; 0x10
    1fbc:	5f 84       	ldd	r5, Y+15	; 0x0f
    1fbe:	6e 84       	ldd	r6, Y+14	; 0x0e
    1fc0:	7d 84       	ldd	r7, Y+13	; 0x0d
    1fc2:	8c 84       	ldd	r8, Y+12	; 0x0c
    1fc4:	9b 84       	ldd	r9, Y+11	; 0x0b
    1fc6:	aa 84       	ldd	r10, Y+10	; 0x0a
    1fc8:	b9 84       	ldd	r11, Y+9	; 0x09
    1fca:	c8 84       	ldd	r12, Y+8	; 0x08
    1fcc:	df 80       	ldd	r13, Y+7	; 0x07
    1fce:	ee 80       	ldd	r14, Y+6	; 0x06
    1fd0:	fd 80       	ldd	r15, Y+5	; 0x05
    1fd2:	0c 81       	ldd	r16, Y+4	; 0x04
    1fd4:	1b 81       	ldd	r17, Y+3	; 0x03
    1fd6:	aa 81       	ldd	r26, Y+2	; 0x02
    1fd8:	b9 81       	ldd	r27, Y+1	; 0x01
    1fda:	ce 0f       	add	r28, r30
    1fdc:	d1 1d       	adc	r29, r1
    1fde:	0f b6       	in	r0, 0x3f	; 63
    1fe0:	f8 94       	cli
    1fe2:	de bf       	out	0x3e, r29	; 62
    1fe4:	0f be       	out	0x3f, r0	; 63
    1fe6:	cd bf       	out	0x3d, r28	; 61
    1fe8:	ed 01       	movw	r28, r26
    1fea:	08 95       	ret

00001fec <_exit>:
    1fec:	f8 94       	cli

00001fee <__stop_program>:
    1fee:	ff cf       	rjmp	.-2      	; 0x1fee <__stop_program>
